(dp0
S'0.14'
p1
(dp2
I0
(dp3
S'0.18'
p4
(dp5
I0
(dp6
S'0.09'
p7
(dp8
I0
S'0.01'
p9
sI1
(dp10
S'0.11'
p11
(dp12
I0
(dp13
S'0.33'
p14
(dp15
I0
(dp16
S'0.5'
p17
(dp18
I0
(dp19
S'1.0'
p20
(dp21
I1
(dp22
S'1.0'
p23
(dp24
I-2
(dp25
S'1.0'
p26
(dp27
I0
(dp28
S'1.0'
p29
(dp30
I0
(dp31
S'1.0'
p32
(dp33
I2
(dp34
S'1.0'
p35
(dp36
I-2
(dp37
S'1.0'
p38
(dp39
I-2
(dp40
S'1.0'
p41
(dp42
I0
(dp43
S'1.0'
p44
(dp45
I0
(dp46
S'1.0'
p47
(dp48
I-1
(dp49
S'1.0'
p50
(dp51
I1
(dp52
S'1.0'
p53
(dp54
I-2
(dp55
S'1.0'
p56
(dp57
I-1
(dp58
S'1.0'
p59
(dp60
I0
(dp61
S'1.0'
p62
(dp63
I1
S'1.0'
p64
sssssssssssssssssssssssssssssssI-1
(dp65
S'0.0'
p66
(dp67
I-2
(dp68
S'0.0'
p69
(dp70
I-1
(dp71
S'0.0'
p72
(dp73
I1
S'0.0'
p74
sssssssssI-2
(dp75
S'0.0'
p76
(dp77
I1
(dp78
S'0.0'
p79
(dp80
I0
(dp81
S'0.0'
p82
(dp83
I-2
(dp84
S'0.0'
p85
(dp86
I-1
(dp87
S'0.0'
p88
(dp89
I0
(dp90
S'0.0'
p91
(dp92
I-1
(dp93
S'0.0'
p94
(dp95
I-1
(dp96
S'0.0'
p97
(dp98
I-2
(dp99
S'0.0'
p100
(dp101
I0
(dp102
S'0.0'
p103
(dp104
I-2
(dp105
S'0.0'
p106
(dp107
I-1
S'0.0'
p108
sssssssssssssssssssssssssI1
(dp109
S'0.0'
p110
(dp111
I0
(dp112
S'0.0'
p113
(dp114
I0
(dp115
S'0.0'
p116
(dp117
I1
S'0.0'
p118
sssssI-1
(dp119
S'0.0'
p120
(dp121
I-1
(dp122
S'0.0'
p123
(dp124
I0
(dp125
S'0.0'
p126
(dp127
I1
(dp128
S'0.0'
p129
(dp130
I0
(dp131
S'0.0'
p132
(dp133
I-2
(dp134
S'0.0'
p135
(dp136
I0
(dp137
S'0.0'
p138
(dp139
I1
(dp140
S'0.0'
p141
(dp142
I0
(dp143
S'0.0'
p144
(dp145
I0
(dp146
S'0.0'
p147
(dp148
I-2
(dp149
S'0.0'
p150
(dp151
I-2
(dp152
S'0.0'
p153
(dp154
I-1
(dp155
S'0.0'
p156
(dp157
I0
(dp158
S'0.0'
p159
(dp160
I-1
(dp161
S'0.0'
p162
(dp163
I1
(dp164
S'0.0'
p165
(dp166
I-1
(dp167
S'0.0'
p168
(dp169
I-1
S'0.0'
p170
sssssssssssssssssssssssssssssssssssssI-2
(dp171
S'0.0'
p172
(dp173
I0
(dp174
S'0.0'
p175
(dp176
I1
S'0.0'
p177
sssssI-1
(dp178
S'0.0'
p179
(dp180
I0
S'0.0'
p181
sI-2
(dp182
S'0.0'
p183
(dp184
I-1
S'0.0'
p185
sssssssI2
(dp186
S'0.33'
p187
(dp188
I0
(dp189
S'0.25'
p190
(dp191
I0
(dp192
S'0.33'
p193
(dp194
I0
S'0.5'
p195
sI-2
(dp196
S'0.0'
p197
(dp198
I0
(dp199
S'0.0'
p200
(dp201
I-1
S'0.0'
p202
sssssssI1
(dp203
S'0.0'
p204
(dp205
I-1
(dp206
S'0.0'
p207
(dp208
I-1
(dp209
S'0.0'
p210
(dp211
I0
(dp212
S'0.0'
p213
(dp214
I-2
(dp215
S'0.0'
p216
(dp217
I-1
(dp218
S'0.0'
p219
(dp220
I0
(dp221
S'0.0'
p222
(dp223
I0
(dp224
S'0.0'
p225
(dp226
I-1
(dp227
S'0.0'
p228
(dp229
I0
(dp230
S'0.0'
p231
(dp232
I1
(dp233
S'0.0'
p234
(dp235
I-1
S'0.0'
p236
sssssssssssssssssssssssI-1
(dp237
S'0.0'
p238
(dp239
I0
(dp240
S'0.0'
p241
(dp242
I1
(dp243
S'0.0'
p244
(dp245
I-2
S'0.0'
p246
sssssI-2
(dp247
S'0.0'
p248
(dp249
I0
(dp250
S'0.0'
p251
(dp252
I-2
S'0.0'
p253
sssssssI-2
(dp254
S'0.5'
p255
(dp256
I-1
(dp257
S'0.5'
p258
(dp259
I0
(dp260
S'1.0'
p261
(dp262
I1
(dp263
S'1.0'
p264
(dp265
I-1
(dp266
S'1.0'
p267
(dp268
I-1
(dp269
S'1.0'
p270
(dp271
I0
(dp272
S'1.0'
p273
(dp274
I0
(dp275
S'1.0'
p276
(dp277
I-2
(dp278
S'1.0'
p279
(dp280
I1
(dp281
S'1.0'
p282
(dp283
I-1
(dp284
S'1.0'
p285
(dp286
I-1
(dp287
S'1.0'
p288
(dp289
I-1
(dp290
S'1.0'
p291
(dp292
I-1
(dp293
S'1.0'
p294
(dp295
I-1
(dp296
S'1.0'
p297
(dp298
I-1
(dp299
S'1.0'
p300
(dp301
I-1
(dp302
S'1.0'
p303
(dp304
I-1
(dp305
S'1.0'
p306
(dp307
I-1
(dp308
S'1.0'
p309
(dp310
I0
(dp311
S'1.0'
p312
(dp313
I1
(dp314
S'1.0'
p315
(dp316
I-1
(dp317
S'1.0'
p318
(dp319
I-1
(dp320
S'1.0'
p321
(dp322
I-1
(dp323
S'1.0'
p324
(dp325
I0
(dp326
S'1.0'
p327
(dp328
I-2
(dp329
S'1.0'
p330
(dp331
I0
(dp332
S'1.0'
p333
(dp334
I1
(dp335
S'1.0'
p336
(dp337
I-1
(dp338
S'1.0'
p339
(dp340
I0
(dp341
S'1.0'
p342
(dp343
I0
(dp344
S'1.0'
p345
(dp346
I-1
(dp347
S'1.0'
p348
(dp349
I1
S'1.0'
p350
sssssssssssssssssssssssssssssssssssssssssssssssssssssssssssssI-1
S'0.0'
p351
sssssssI-1
(dp352
S'0.4'
p353
(dp354
I0
(dp355
S'0.33'
p356
(dp357
I0
(dp358
S'0.5'
p359
(dp360
I2
S'1.0'
p361
sI-2
(dp362
S'0.0'
p363
(dp364
I1
S'0.0'
p365
sssssI-1
(dp366
S'0.0'
p367
(dp368
I0
(dp369
S'0.0'
p370
(dp371
I-2
(dp372
S'0.0'
p373
(dp374
I-2
(dp375
S'0.0'
p376
(dp377
I-1
(dp378
S'0.0'
p379
(dp380
I0
(dp381
S'0.0'
p382
(dp383
I1
(dp384
S'0.0'
p385
(dp386
I-1
S'0.0'
p387
sssssssssssssssssI-1
(dp388
S'0.43'
p389
(dp390
I0
(dp391
S'0.0'
p392
(dp393
I-2
(dp394
S'0.0'
p395
(dp396
I0
(dp397
S'0.0'
p398
(dp399
I-1
S'0.0'
p400
sssssssI-1
(dp401
S'0.5'
p402
(dp403
I0
(dp404
S'0.5'
p405
(dp406
I-1
(dp407
S'1.0'
p408
(dp409
I-1
(dp410
S'1.0'
p411
(dp412
I-2
(dp413
S'1.0'
p414
(dp415
I-1
(dp416
S'1.0'
p417
(dp418
I0
(dp419
S'1.0'
p420
(dp421
I-1
(dp422
S'1.0'
p423
(dp424
I-1
(dp425
S'1.0'
p426
(dp427
I-1
(dp428
S'1.0'
p429
(dp430
I-1
(dp431
S'1.0'
p432
(dp433
I-1
(dp434
S'1.0'
p435
(dp436
I0
(dp437
S'1.0'
p438
(dp439
I-1
(dp440
S'1.0'
p441
(dp442
I-2
(dp443
S'1.0'
p444
(dp445
I0
(dp446
S'1.0'
p447
(dp448
I2
S'1.0'
p449
sssssssssssssssssssssssssssssI-2
(dp450
S'0.0'
p451
(dp452
I-1
(dp453
S'0.0'
p454
(dp455
I-1
(dp456
S'0.0'
p457
(dp458
I-1
(dp459
S'0.0'
p460
(dp461
I-1
(dp462
S'0.0'
p463
(dp464
I0
(dp465
S'0.0'
p466
(dp467
I1
(dp468
S'0.0'
p469
(dp470
I-1
S'0.0'
p471
sssssssssssssssssI-1
(dp472
S'0.5'
p473
(dp474
I0
S'0.0'
p475
sI-1
(dp476
S'0.67'
p477
(dp478
I-1
(dp479
S'0.67'
p480
(dp481
I0
(dp482
S'1.0'
p483
(dp484
I0
(dp485
S'1.0'
p486
(dp487
I2
S'1.0'
p488
sssI-2
(dp489
S'1.0'
p490
(dp491
I-1
(dp492
S'1.0'
p493
(dp494
I-1
(dp495
S'1.0'
p496
(dp497
I-1
(dp498
S'1.0'
p499
(dp500
I-1
(dp501
S'1.0'
p502
(dp503
I0
(dp504
S'1.0'
p505
(dp506
I1
S'1.0'
p507
sssssssssssssssI-1
S'0.0'
p508
sssssssssssssssI-2
(dp509
S'0.23'
p510
(dp511
I0
(dp512
S'0.2'
p513
(dp514
I0
S'0.0'
p515
sI-2
(dp516
S'1.0'
p517
(dp518
I-2
(dp519
S'1.0'
p520
(dp521
I0
(dp522
S'1.0'
p523
(dp524
I0
(dp525
S'1.0'
p526
(dp527
I2
S'1.0'
p528
sssssssssI-1
(dp529
S'0.0'
p530
(dp531
I-2
(dp532
S'0.0'
p533
(dp534
I1
S'0.0'
p535
sssssssI1
(dp536
S'0.33'
p537
(dp538
I0
S'1.0'
p539
sI-1
(dp540
S'0.0'
p541
(dp542
I0
(dp543
S'0.0'
p544
(dp545
I-1
(dp546
S'0.0'
p547
(dp548
I1
(dp549
S'0.0'
p550
(dp551
I-1
(dp552
S'0.0'
p553
(dp554
I-1
(dp555
S'0.0'
p556
(dp557
I-1
S'0.0'
p558
sssssssssssI-1
(dp559
S'0.0'
p560
(dp561
I-1
(dp562
S'0.0'
p563
(dp564
I0
(dp565
S'0.0'
p566
(dp567
I-2
(dp568
S'0.0'
p569
(dp570
I-1
S'0.0'
p571
sssssssssssssI-1
(dp572
S'0.0'
p573
(dp574
I-1
(dp575
S'0.0'
p576
(dp577
I-2
(dp578
S'0.0'
p579
(dp580
I0
(dp581
S'0.0'
p582
(dp583
I1
(dp584
S'0.0'
p585
(dp586
I0
(dp587
S'0.0'
p588
(dp589
I-2
(dp590
S'0.0'
p591
(dp592
I-1
(dp593
S'0.0'
p594
(dp595
I-1
(dp596
S'0.0'
p597
(dp598
I-1
S'0.0'
p599
sssssssssssssssssssI-2
(dp600
S'0.25'
p601
(dp602
I0
(dp603
S'0.0'
p604
(dp605
I1
S'0.0'
p606
sssI-1
(dp607
S'0.33'
p608
(dp609
I0
S'0.0'
p610
sI-1
(dp611
S'0.5'
p612
(dp613
I-1
(dp614
S'0.5'
p615
(dp616
I-1
(dp617
S'0.5'
p618
(dp619
I0
(dp620
S'1.0'
p621
(dp622
I0
(dp623
S'1.0'
p624
(dp625
I2
S'1.0'
p626
sssssI-1
S'0.0'
p627
sssssssssssssI-1
(dp628
S'0.22'
p629
(dp630
I0
S'0.33'
p631
sI1
(dp632
S'0.33'
p633
(dp634
I1
(dp635
S'0.33'
p636
(dp637
I0
(dp638
S'0.5'
p639
(dp640
I0
S'1.0'
p641
sI-1
(dp642
S'0.0'
p643
(dp644
I-2
(dp645
S'0.0'
p646
(dp647
I-1
(dp648
S'0.0'
p649
(dp650
I-1
(dp651
S'0.0'
p652
(dp653
I-1
(dp654
S'0.0'
p655
(dp656
I-1
S'0.0'
p657
sssssssssssssI-1
(dp658
S'0.0'
p659
(dp660
I-1
S'0.0'
p661
sssssssI2
(dp662
S'0.0'
p663
(dp664
I-1
S'0.0'
p665
sssI-2
S'0.0'
p666
sI-1
(dp667
S'0.0'
p668
(dp669
I1
(dp670
S'0.0'
p671
(dp672
I-2
(dp673
S'0.0'
p674
(dp675
I0
(dp676
S'0.0'
p677
(dp678
I-2
(dp679
S'0.0'
p680
(dp681
I-1
S'0.0'
p682
sssssssssssssssI1
(dp683
S'0.18'
p684
(dp685
I0
(dp686
S'0.18'
p687
(dp688
I0
(dp689
S'0.12'
p690
(dp691
I0
S'0.0'
p692
sI1
(dp693
S'0.5'
p694
(dp695
I1
(dp696
S'0.0'
p697
(dp698
I0
(dp699
S'0.0'
p700
(dp701
I-1
(dp702
S'0.0'
p703
(dp704
I-1
(dp705
S'0.0'
p706
(dp707
I1
(dp708
S'0.0'
p709
(dp710
I-1
(dp711
S'0.0'
p712
(dp713
I0
(dp714
S'0.0'
p715
(dp716
I-2
(dp717
S'0.0'
p718
(dp719
I0
(dp720
S'0.0'
p721
(dp722
I-1
S'0.0'
p723
sssssssssssssssssssI-2
(dp724
S'1.0'
p725
(dp726
I0
(dp727
S'1.0'
p728
(dp729
I1
(dp730
S'1.0'
p731
(dp732
I-1
(dp733
S'1.0'
p734
(dp735
I0
(dp736
S'1.0'
p737
(dp738
I1
S'1.0'
p739
sssssssssssssI2
(dp740
S'0.5'
p741
(dp742
I0
(dp743
S'0.5'
p744
(dp745
I0
S'1.0'
p746
sI1
(dp747
S'0.0'
p748
(dp749
I-1
(dp750
S'0.0'
p751
(dp752
I0
(dp753
S'0.0'
p754
(dp755
I-2
(dp756
S'0.0'
p757
(dp758
I0
(dp759
S'0.0'
p760
(dp761
I0
(dp762
S'0.0'
p763
(dp764
I-2
(dp765
S'0.0'
p766
(dp767
I-1
(dp768
S'0.0'
p769
(dp770
I-2
(dp771
S'0.0'
p772
(dp773
I0
(dp774
S'0.0'
p775
(dp776
I-1
(dp777
S'0.0'
p778
(dp779
I1
S'0.0'
p780
sssssssssssssssssssssssssssI-2
(dp781
S'1.0'
p782
(dp783
I-2
(dp784
S'1.0'
p785
(dp786
I0
(dp787
S'1.0'
p788
(dp789
I1
(dp790
S'1.0'
p791
(dp792
I0
(dp793
S'1.0'
p794
(dp795
I-1
(dp796
S'1.0'
p797
(dp798
I1
S'1.0'
p799
sssssssssssssI-1
(dp800
S'0.4'
p801
(dp802
I0
(dp803
S'0.5'
p804
(dp805
I1
(dp806
S'1.0'
p807
(dp808
I-2
(dp809
S'1.0'
p810
(dp811
I0
(dp812
S'1.0'
p813
(dp814
I1
(dp815
S'1.0'
p816
(dp817
I-1
(dp818
S'1.0'
p819
(dp820
I1
(dp821
S'1.0'
p822
(dp823
I0
(dp824
S'1.0'
p825
(dp826
I0
(dp827
S'1.0'
p828
(dp829
I2
(dp830
S'1.0'
p831
(dp832
I-1
(dp833
S'1.0'
p834
(dp835
I0
(dp836
S'1.0'
p837
(dp838
I1
S'1.0'
p839
sssssssssssssssssssssssI-2
(dp840
S'0.0'
p841
(dp842
I0
(dp843
S'0.0'
p844
(dp845
I-2
(dp846
S'0.0'
p847
(dp848
I0
(dp849
S'0.0'
p850
(dp851
I0
(dp852
S'0.0'
p853
(dp854
I-1
(dp855
S'0.0'
p856
(dp857
I-2
(dp858
S'0.0'
p859
(dp860
I1
(dp861
S'0.0'
p862
(dp863
I0
(dp864
S'0.0'
p865
(dp866
I-1
(dp867
S'0.0'
p868
(dp869
I-1
(dp870
S'0.0'
p871
(dp872
I-1
S'0.0'
p873
sssssssssssssssssssssssssI2
(dp874
S'0.5'
p875
(dp876
I0
S'1.0'
p877
sI-1
(dp878
S'0.0'
p879
(dp880
I0
(dp881
S'0.0'
p882
(dp883
I-1
(dp884
S'0.0'
p885
(dp886
I-1
(dp887
S'0.0'
p888
(dp889
I-1
(dp890
S'0.0'
p891
(dp892
I-1
(dp893
S'0.0'
p894
(dp895
I-1
(dp896
S'0.0'
p897
(dp898
I0
(dp899
S'0.0'
p900
(dp901
I-2
(dp902
S'0.0'
p903
(dp904
I-2
(dp905
S'0.0'
p906
(dp907
I-1
(dp908
S'0.0'
p909
(dp910
I0
(dp911
S'0.0'
p912
(dp913
I-1
(dp914
S'0.0'
p915
(dp916
I-2
S'0.0'
p917
sssssssssssssssssssssssssssssI-2
(dp918
S'0.0'
p919
(dp920
I-1
S'0.0'
p921
sssssssI1
(dp922
S'0.17'
p923
(dp924
I0
(dp925
S'0.11'
p926
(dp927
I0
(dp928
S'0.17'
p929
(dp930
I0
S'0.0'
p931
sI1
(dp932
S'0.5'
p933
(dp934
I0
S'1.0'
p935
sI1
(dp936
S'0.0'
p937
(dp938
I-1
(dp939
S'0.0'
p940
(dp941
I-1
S'0.0'
p942
sssssssssI1
(dp943
S'0.0'
p944
(dp945
I0
(dp946
S'0.0'
p947
(dp948
I-1
(dp949
S'0.0'
p950
(dp951
I0
(dp952
S'0.0'
p953
(dp954
I1
(dp955
S'0.0'
p956
(dp957
I-2
(dp958
S'0.0'
p959
(dp960
I-1
(dp961
S'0.0'
p962
(dp963
I-1
S'0.0'
p964
sssssssssssssssI-2
(dp965
S'0.0'
p966
(dp967
I-1
(dp968
S'0.0'
p969
(dp970
I-1
(dp971
S'0.0'
p972
(dp973
I-1
(dp974
S'0.0'
p975
(dp976
I-1
(dp977
S'0.0'
p978
(dp979
I-1
(dp980
S'0.0'
p981
(dp982
I-1
S'0.0'
p983
sssssssssssssI-1
(dp984
S'0.0'
p985
(dp986
I0
(dp987
S'0.0'
p988
(dp989
I-1
(dp990
S'0.0'
p991
(dp992
I2
(dp993
S'0.0'
p994
(dp995
I0
(dp996
S'0.0'
p997
(dp998
I-2
(dp999
S'0.0'
p1000
(dp1001
I0
(dp1002
S'0.0'
p1003
(dp1004
I1
(dp1005
S'0.0'
p1006
(dp1007
I-1
(dp1008
S'0.0'
p1009
(dp1010
I-1
(dp1011
S'0.0'
p1012
(dp1013
I-1
(dp1014
S'0.0'
p1015
(dp1016
I0
(dp1017
S'0.0'
p1018
(dp1019
I-2
(dp1020
S'0.0'
p1021
(dp1022
I0
(dp1023
S'0.0'
p1024
(dp1025
I-2
S'0.0'
p1026
sssssssssssssssssssssssssssssssI-1
(dp1027
S'0.22'
p1028
(dp1029
I0
(dp1030
S'0.29'
p1031
(dp1032
I0
(dp1033
S'0.2'
p1034
(dp1035
I0
S'0.0'
p1036
sI2
S'1.0'
p1037
sI-2
(dp1038
S'0.0'
p1039
(dp1040
I0
(dp1041
S'0.0'
p1042
(dp1043
I1
(dp1044
S'0.0'
p1045
(dp1046
I-1
(dp1047
S'0.0'
p1048
(dp1049
I-2
(dp1050
S'0.0'
p1051
(dp1052
I-1
(dp1053
S'0.0'
p1054
(dp1055
I0
(dp1056
S'0.0'
p1057
(dp1058
I-2
(dp1059
S'0.0'
p1060
(dp1061
I0
(dp1062
S'0.0'
p1063
(dp1064
I-2
(dp1065
S'0.0'
p1066
(dp1067
I-1
S'0.0'
p1068
sssssssssssssssssssssssI1
(dp1069
S'1.0'
p1070
(dp1071
I-1
(dp1072
S'1.0'
p1073
(dp1074
I-1
(dp1075
S'1.0'
p1076
(dp1077
I0
(dp1078
S'1.0'
p1079
(dp1080
I0
(dp1081
S'1.0'
p1082
(dp1083
I1
S'1.0'
p1084
sssssssssssI-2
(dp1085
S'0.0'
p1086
(dp1087
I-1
S'0.0'
p1088
sssssI-1
S'0.0'
p1089
sssssI-2
(dp1090
S'0.06'
p1091
(dp1092
I0
(dp1093
S'0.13'
p1094
(dp1095
I0
S'0.0'
p1096
sI1
(dp1097
S'0.0'
p1098
(dp1099
I0
(dp1100
S'0.0'
p1101
(dp1102
I-2
(dp1103
S'0.0'
p1104
(dp1105
I0
(dp1106
S'0.0'
p1107
(dp1108
I-2
(dp1109
S'0.0'
p1110
(dp1111
I-1
(dp1112
S'0.0'
p1113
(dp1114
I-1
(dp1115
S'0.0'
p1116
(dp1117
I-1
S'0.0'
p1118
sssssssssssssssI-2
(dp1119
S'0.0'
p1120
(dp1121
I0
(dp1122
S'0.0'
p1123
(dp1124
I1
(dp1125
S'0.0'
p1126
(dp1127
I-1
S'0.0'
p1128
sssssI-1
(dp1129
S'0.0'
p1130
(dp1131
I0
S'0.0'
p1132
sI-1
(dp1133
S'0.0'
p1134
(dp1135
I-1
S'0.0'
p1136
sssssssI-1
(dp1137
S'1.0'
p1138
(dp1139
I1
S'1.0'
p1140
sssssI-1
(dp1141
S'0.0'
p1142
(dp1143
I0
(dp1144
S'0.0'
p1145
(dp1146
I0
S'0.0'
p1147
sI1
(dp1148
S'0.0'
p1149
(dp1150
I-1
S'0.0'
p1151
sssI-2
(dp1152
S'0.0'
p1153
(dp1154
I0
(dp1155
S'0.0'
p1156
(dp1157
I-1
(dp1158
S'0.0'
p1159
(dp1160
I-2
(dp1161
S'0.0'
p1162
(dp1163
I-1
(dp1164
S'0.0'
p1165
(dp1166
I0
(dp1167
S'0.0'
p1168
(dp1169
I-1
(dp1170
S'0.0'
p1171
(dp1172
I-2
(dp1173
S'0.0'
p1174
(dp1175
I0
(dp1176
S'0.0'
p1177
(dp1178
I1
S'0.0'
p1179
sssssssssssssssssssI-1
(dp1180
S'0.0'
p1181
(dp1182
I-2
(dp1183
S'0.0'
p1184
(dp1185
I-1
S'0.0'
p1186
sssI-1
(dp1187
S'0.0'
p1188
(dp1189
I1
(dp1190
S'0.0'
p1191
(dp1192
I-1
(dp1193
S'0.0'
p1194
(dp1195
I-1
S'0.0'
p1196
sssssssssssI-1
(dp1197
S'0.0'
p1198
(dp1199
I0
(dp1200
S'0.0'
p1201
(dp1202
I0
S'0.0'
p1203
sI1
(dp1204
S'0.0'
p1205
(dp1206
I-1
(dp1207
S'0.0'
p1208
(dp1209
I-1
(dp1210
S'0.0'
p1211
(dp1212
I-1
(dp1213
S'0.0'
p1214
(dp1215
I-1
(dp1216
S'0.0'
p1217
(dp1218
I0
(dp1219
S'0.0'
p1220
(dp1221
I0
(dp1222
S'0.0'
p1223
(dp1224
I-1
(dp1225
S'0.0'
p1226
(dp1227
I0
(dp1228
S'0.0'
p1229
(dp1230
I-1
(dp1231
S'0.0'
p1232
(dp1233
I-1
(dp1234
S'0.0'
p1235
(dp1236
I2
(dp1237
S'0.0'
p1238
(dp1239
I0
(dp1240
S'0.0'
p1241
(dp1242
I-2
(dp1243
S'0.0'
p1244
(dp1245
I-2
(dp1246
S'0.0'
p1247
(dp1248
I0
(dp1249
S'0.0'
p1250
(dp1251
I-1
(dp1252
S'0.0'
p1253
(dp1254
I-2
(dp1255
S'0.0'
p1256
(dp1257
I0
(dp1258
S'0.0'
p1259
(dp1260
I1
(dp1261
S'0.0'
p1262
(dp1263
I-1
(dp1264
S'0.0'
p1265
(dp1266
I0
(dp1267
S'0.0'
p1268
(dp1269
I0
(dp1270
S'0.0'
p1271
(dp1272
I1
(dp1273
S'0.0'
p1274
(dp1275
I1
(dp1276
S'0.0'
p1277
(dp1278
I-1
(dp1279
S'0.0'
p1280
(dp1281
I0
(dp1282
S'0.0'
p1283
(dp1284
I-2
S'0.0'
p1285
sssssssssssssssssssssssssssssssssssssssssssssssssssssssssI-1
(dp1286
S'0.0'
p1287
(dp1288
I-1
(dp1289
S'0.0'
p1290
(dp1291
I-1
(dp1292
S'0.0'
p1293
(dp1294
I-1
S'0.0'
p1295
sssssssssssssI-1
(dp1296
S'0.44'
p1297
(dp1298
I0
(dp1299
S'0.5'
p1300
(dp1301
I0
S'0.0'
p1302
sI-1
(dp1303
S'1.0'
p1304
(dp1305
I2
(dp1306
S'1.0'
p1307
(dp1308
I0
(dp1309
S'1.0'
p1310
(dp1311
I0
(dp1312
S'1.0'
p1313
(dp1314
I2
S'1.0'
p1315
sssI1
S'1.0'
p1316
sssssssI-2
(dp1317
S'1.0'
p1318
(dp1319
I0
(dp1320
S'1.0'
p1321
(dp1322
I0
(dp1323
S'1.0'
p1324
(dp1325
I-2
(dp1326
S'1.0'
p1327
(dp1328
I1
(dp1329
S'1.0'
p1330
(dp1331
I-1
(dp1332
S'1.0'
p1333
(dp1334
I1
(dp1335
S'1.0'
p1336
(dp1337
I0
(dp1338
S'1.0'
p1339
(dp1340
I-2
(dp1341
S'1.0'
p1342
(dp1343
I0
(dp1344
S'1.0'
p1345
(dp1346
I0
(dp1347
S'1.0'
p1348
(dp1349
I-2
(dp1350
S'1.0'
p1351
(dp1352
I-2
(dp1353
S'1.0'
p1354
(dp1355
I-1
(dp1356
S'1.0'
p1357
(dp1358
I0
(dp1359
S'1.0'
p1360
(dp1361
I-1
(dp1362
S'1.0'
p1363
(dp1364
I-1
(dp1365
S'1.0'
p1366
(dp1367
I-1
(dp1368
S'1.0'
p1369
(dp1370
I1
S'1.0'
p1371
sssssssssssssssssssssssssssssssssssssssI1
(dp1372
S'0.0'
p1373
(dp1374
I0
(dp1375
S'0.0'
p1376
(dp1377
I0
(dp1378
S'0.0'
p1379
(dp1380
I-2
(dp1381
S'0.0'
p1382
(dp1383
I0
(dp1384
S'0.0'
p1385
(dp1386
I-1
(dp1387
S'0.0'
p1388
(dp1389
I-2
(dp1390
S'0.0'
p1391
(dp1392
I-1
(dp1393
S'0.0'
p1394
(dp1395
I-2
(dp1396
S'0.0'
p1397
(dp1398
I-1
(dp1399
S'0.0'
p1400
(dp1401
I-1
(dp1402
S'0.0'
p1403
(dp1404
I-1
(dp1405
S'0.0'
p1406
(dp1407
I0
(dp1408
S'0.0'
p1409
(dp1410
I1
(dp1411
S'0.0'
p1412
(dp1413
I0
(dp1414
S'0.0'
p1415
(dp1416
I1
(dp1417
S'0.0'
p1418
(dp1419
I-1
(dp1420
S'0.0'
p1421
(dp1422
I-1
S'0.0'
p1423
sssssssssssssssssssssssssssssssssssI-2
(dp1424
S'0.5'
p1425
(dp1426
I0
(dp1427
S'0.5'
p1428
(dp1429
I0
S'0.0'
p1430
sI1
(dp1431
S'1.0'
p1432
(dp1433
I-1
(dp1434
S'1.0'
p1435
(dp1436
I0
(dp1437
S'1.0'
p1438
(dp1439
I-1
(dp1440
S'1.0'
p1441
(dp1442
I-1
(dp1443
S'1.0'
p1444
(dp1445
I-2
(dp1446
S'1.0'
p1447
(dp1448
I0
(dp1449
S'1.0'
p1450
(dp1451
I-1
(dp1452
S'1.0'
p1453
(dp1454
I1
(dp1455
S'1.0'
p1456
(dp1457
I0
(dp1458
S'1.0'
p1459
(dp1460
I0
(dp1461
S'1.0'
p1462
(dp1463
I-1
(dp1464
S'1.0'
p1465
(dp1466
I2
S'1.0'
p1467
sssssssssssssssssssssssssI-2
(dp1468
S'1.0'
p1469
(dp1470
I0
(dp1471
S'1.0'
p1472
(dp1473
I0
(dp1474
S'1.0'
p1475
(dp1476
I-2
(dp1477
S'1.0'
p1478
(dp1479
I1
(dp1480
S'1.0'
p1481
(dp1482
I-1
(dp1483
S'1.0'
p1484
(dp1485
I0
(dp1486
S'1.0'
p1487
(dp1488
I0
(dp1489
S'1.0'
p1490
(dp1491
I-1
(dp1492
S'1.0'
p1493
(dp1494
I2
S'1.0'
p1495
sssssssssssssssssssI-1
(dp1496
S'1.0'
p1497
(dp1498
I-1
(dp1499
S'1.0'
p1500
(dp1501
I1
(dp1502
S'1.0'
p1503
(dp1504
I0
(dp1505
S'1.0'
p1506
(dp1507
I0
(dp1508
S'1.0'
p1509
(dp1510
I-2
(dp1511
S'1.0'
p1512
(dp1513
I-1
(dp1514
S'1.0'
p1515
(dp1516
I0
(dp1517
S'1.0'
p1518
(dp1519
I1
(dp1520
S'1.0'
p1521
(dp1522
I-1
(dp1523
S'1.0'
p1524
(dp1525
I0
(dp1526
S'1.0'
p1527
(dp1528
I1
S'1.0'
p1529
sssssssssssssssssssssssssI-1
(dp1530
S'0.5'
p1531
(dp1532
I0
(dp1533
S'0.0'
p1534
(dp1535
I-1
(dp1536
S'0.0'
p1537
(dp1538
I0
(dp1539
S'0.0'
p1540
(dp1541
I0
(dp1542
S'0.0'
p1543
(dp1544
I-1
S'0.0'
p1545
sssssssssI-1
(dp1546
S'1.0'
p1547
(dp1548
I-1
(dp1549
S'1.0'
p1550
(dp1551
I-1
(dp1552
S'1.0'
p1553
(dp1554
I0
(dp1555
S'1.0'
p1556
(dp1557
I0
(dp1558
S'1.0'
p1559
(dp1560
I0
(dp1561
S'1.0'
p1562
(dp1563
I-1
(dp1564
S'1.0'
p1565
(dp1566
I-1
(dp1567
S'1.0'
p1568
(dp1569
I1
S'1.0'
p1570
sssssssssssssssssssssI-1
(dp1571
S'0.33'
p1572
(dp1573
I0
(dp1574
S'1.0'
p1575
(dp1576
I0
(dp1577
S'1.0'
p1578
(dp1579
I-1
(dp1580
S'1.0'
p1581
(dp1582
I-1
(dp1583
S'1.0'
p1584
(dp1585
I-1
(dp1586
S'1.0'
p1587
(dp1588
I1
S'1.0'
p1589
sssssssssssI1
S'0.0'
p1590
sI-1
(dp1591
S'0.0'
p1592
(dp1593
I1
S'0.0'
p1594
sssssssssI-1
(dp1595
S'0.18'
p1596
(dp1597
I0
(dp1598
S'0.23'
p1599
(dp1600
I0
S'0.12'
p1601
sI1
(dp1602
S'0.6'
p1603
(dp1604
I0
(dp1605
S'0.75'
p1606
(dp1607
I0
S'0.8'
p1608
sI1
(dp1609
S'0.0'
p1610
(dp1611
I-1
(dp1612
S'0.0'
p1613
(dp1614
I-1
(dp1615
S'0.0'
p1616
(dp1617
I-1
(dp1618
S'0.0'
p1619
(dp1620
I0
(dp1621
S'0.0'
p1622
(dp1623
I-2
(dp1624
S'0.0'
p1625
(dp1626
I0
(dp1627
S'0.0'
p1628
(dp1629
I1
(dp1630
S'0.0'
p1631
(dp1632
I-1
(dp1633
S'0.0'
p1634
(dp1635
I-1
(dp1636
S'0.0'
p1637
(dp1638
I0
(dp1639
S'0.0'
p1640
(dp1641
I-2
(dp1642
S'0.0'
p1643
(dp1644
I-1
(dp1645
S'0.0'
p1646
(dp1647
I-1
S'0.0'
p1648
sssssssssssssssssssssssssssI-1
(dp1649
S'1.0'
p1650
(dp1651
I-2
(dp1652
S'1.0'
p1653
(dp1654
I0
(dp1655
S'1.0'
p1656
(dp1657
I1
(dp1658
S'1.0'
p1659
(dp1660
I0
S'1.0'
p1661
sI-1
(dp1662
S'1.0'
p1663
(dp1664
I-1
(dp1665
S'1.0'
p1666
(dp1667
I-1
(dp1668
S'1.0'
p1669
(dp1670
I-1
(dp1671
S'1.0'
p1672
(dp1673
I0
(dp1674
S'1.0'
p1675
(dp1676
I-2
(dp1677
S'1.0'
p1678
(dp1679
I-1
(dp1680
S'1.0'
p1681
(dp1682
I-1
(dp1683
S'1.0'
p1684
(dp1685
I0
(dp1686
S'1.0'
p1687
(dp1688
I1
(dp1689
S'1.0'
p1690
(dp1691
I0
(dp1692
S'1.0'
p1693
(dp1694
I0
(dp1695
S'1.0'
p1696
(dp1697
I2
(dp1698
S'1.0'
p1699
(dp1700
I-1
(dp1701
S'1.0'
p1702
(dp1703
I0
(dp1704
S'1.0'
p1705
(dp1706
I0
(dp1707
S'1.0'
p1708
(dp1709
I0
(dp1710
S'1.0'
p1711
(dp1712
I0
(dp1713
S'1.0'
p1714
(dp1715
I0
(dp1716
S'1.0'
p1717
(dp1718
I1
(dp1719
S'1.0'
p1720
(dp1721
I1
S'1.0'
p1722
sssssssssssssssssssssssssssssssssssssssssssssssssssI-1
(dp1723
S'0.0'
p1724
(dp1725
I0
(dp1726
S'0.0'
p1727
(dp1728
I-2
(dp1729
S'0.0'
p1730
(dp1731
I-1
S'0.0'
p1732
sssssI-1
(dp1733
S'0.0'
p1734
(dp1735
I-1
(dp1736
S'0.0'
p1737
(dp1738
I-1
(dp1739
S'0.0'
p1740
(dp1741
I-1
(dp1742
S'0.0'
p1743
(dp1744
I-1
(dp1745
S'0.0'
p1746
(dp1747
I0
(dp1748
S'0.0'
p1749
(dp1750
I-2
(dp1751
S'0.0'
p1752
(dp1753
I0
(dp1754
S'0.0'
p1755
(dp1756
I-2
(dp1757
S'0.0'
p1758
(dp1759
I-1
(dp1760
S'0.0'
p1761
(dp1762
I-1
S'0.0'
p1763
sssssssssssssssssssssssssI-1
(dp1764
S'0.25'
p1765
(dp1766
I0
(dp1767
S'0.0'
p1768
(dp1769
I0
S'0.0'
p1770
sI-2
(dp1771
S'0.0'
p1772
(dp1773
I-1
S'0.0'
p1774
sssssI-1
S'0.5'
p1775
sI-2
(dp1776
S'0.25'
p1777
(dp1778
I0
(dp1779
S'0.25'
p1780
(dp1781
I0
S'0.0'
p1782
sI1
S'1.0'
p1783
sI-2
S'0.0'
p1784
sI-1
(dp1785
S'0.0'
p1786
(dp1787
I1
(dp1788
S'0.0'
p1789
(dp1790
I-1
S'0.0'
p1791
sssssssssssI-2
(dp1792
S'0.1'
p1793
(dp1794
I0
(dp1795
S'0.14'
p1796
(dp1797
I0
S'0.0'
p1798
sI1
S'0.5'
p1799
sI-1
(dp1800
S'0.0'
p1801
(dp1802
I-1
(dp1803
S'0.0'
p1804
(dp1805
I-1
(dp1806
S'0.0'
p1807
(dp1808
I1
S'0.0'
p1809
sssssssssI-1
(dp1810
S'0.0'
p1811
(dp1812
I0
(dp1813
S'0.0'
p1814
(dp1815
I-2
S'0.0'
p1816
sssI-1
(dp1817
S'0.0'
p1818
(dp1819
I-1
(dp1820
S'0.0'
p1821
(dp1822
I0
S'0.0'
p1823
sI-1
(dp1824
S'0.0'
p1825
(dp1826
I-1
S'0.0'
p1827
sssssssssssssI-1
(dp1828
S'0.13'
p1829
(dp1830
I0
(dp1831
S'0.1'
p1832
(dp1833
I0
(dp1834
S'0.12'
p1835
(dp1836
I0
S'0.0'
p1837
sI1
(dp1838
S'0.0'
p1839
(dp1840
I1
(dp1841
S'0.0'
p1842
(dp1843
I-1
(dp1844
S'0.0'
p1845
(dp1846
I0
(dp1847
S'0.0'
p1848
(dp1849
I-2
S'0.0'
p1850
sssssssssI2
S'0.5'
p1851
sI-1
(dp1852
S'0.5'
p1853
(dp1854
I-2
(dp1855
S'0.0'
p1856
(dp1857
I-1
(dp1858
S'0.0'
p1859
(dp1860
I1
(dp1861
S'0.0'
p1862
(dp1863
I-1
(dp1864
S'0.0'
p1865
(dp1866
I0
(dp1867
S'0.0'
p1868
(dp1869
I-2
(dp1870
S'0.0'
p1871
(dp1872
I0
(dp1873
S'0.0'
p1874
(dp1875
I-1
(dp1876
S'0.0'
p1877
(dp1878
I-1
(dp1879
S'0.0'
p1880
(dp1881
I-2
S'0.0'
p1882
sssssssssssssssssssI-1
(dp1883
S'1.0'
p1884
(dp1885
I-1
(dp1886
S'1.0'
p1887
(dp1888
I0
(dp1889
S'1.0'
p1890
(dp1891
I-2
(dp1892
S'1.0'
p1893
(dp1894
I2
S'1.0'
p1895
sssssssssssssI1
(dp1896
S'0.0'
p1897
(dp1898
I-1
(dp1899
S'0.0'
p1900
(dp1901
I-1
S'0.0'
p1902
sssssI-1
(dp1903
S'0.0'
p1904
(dp1905
I-1
(dp1906
S'0.0'
p1907
(dp1908
I0
(dp1909
S'0.0'
p1910
(dp1911
I2
(dp1912
S'0.0'
p1913
(dp1914
I0
(dp1915
S'0.0'
p1916
(dp1917
I0
(dp1918
S'0.0'
p1919
(dp1920
I0
(dp1921
S'0.0'
p1922
(dp1923
I-1
(dp1924
S'0.0'
p1925
(dp1926
I-1
S'0.0'
p1927
sssssssssssssssssI-2
(dp1928
S'0.0'
p1929
(dp1930
I0
(dp1931
S'0.0'
p1932
(dp1933
I1
(dp1934
S'0.0'
p1935
(dp1936
I-1
S'0.0'
p1937
sssssI-1
(dp1938
S'0.0'
p1939
(dp1940
I-1
S'0.0'
p1941
sssssssI-1
(dp1942
S'0.16'
p1943
(dp1944
I0
(dp1945
S'0.13'
p1946
(dp1947
I0
S'0.0'
p1948
sI1
(dp1949
S'0.5'
p1950
(dp1951
I0
(dp1952
S'0.5'
p1953
(dp1954
I0
(dp1955
S'0.5'
p1956
(dp1957
I0
S'0.0'
p1958
sI1
(dp1959
S'1.0'
p1960
(dp1961
I-2
(dp1962
S'1.0'
p1963
(dp1964
I-1
(dp1965
S'1.0'
p1966
(dp1967
I-1
(dp1968
S'1.0'
p1969
(dp1970
I-1
(dp1971
S'1.0'
p1972
(dp1973
I0
(dp1974
S'1.0'
p1975
(dp1976
I-2
(dp1977
S'1.0'
p1978
(dp1979
I0
(dp1980
S'1.0'
p1981
(dp1982
I0
(dp1983
S'1.0'
p1984
(dp1985
I1
S'1.0'
p1986
sssssssssssssssssssssssssI-2
(dp1987
S'0.33'
p1988
(dp1989
I0
(dp1990
S'0.5'
p1991
(dp1992
I1
(dp1993
S'0.5'
p1994
(dp1995
I0
(dp1996
S'1.0'
p1997
(dp1998
I1
(dp1999
S'1.0'
p2000
(dp2001
I0
(dp2002
S'1.0'
p2003
(dp2004
I1
(dp2005
S'1.0'
p2006
(dp2007
I-1
(dp2008
S'1.0'
p2009
(dp2010
I0
(dp2011
S'1.0'
p2012
(dp2013
I0
(dp2014
S'1.0'
p2015
(dp2016
I-2
(dp2017
S'1.0'
p2018
(dp2019
I0
(dp2020
S'1.0'
p2021
(dp2022
I1
(dp2023
S'1.0'
p2024
(dp2025
I1
(dp2026
S'1.0'
p2027
(dp2028
I0
(dp2029
S'1.0'
p2030
(dp2031
I1
S'1.0'
p2032
sssssssssssssssssssssssssI-1
S'0.0'
p2033
sssssI-1
(dp2034
S'0.0'
p2035
(dp2036
I0
(dp2037
S'0.0'
p2038
(dp2039
I1
(dp2040
S'0.0'
p2041
(dp2042
I-1
(dp2043
S'0.0'
p2044
(dp2045
I0
(dp2046
S'0.0'
p2047
(dp2048
I-2
S'0.0'
p2049
sssssssssssssI-1
(dp2050
S'0.0'
p2051
(dp2052
I-2
(dp2053
S'0.0'
p2054
(dp2055
I-1
(dp2056
S'0.0'
p2057
(dp2058
I0
(dp2059
S'0.0'
p2060
(dp2061
I-2
S'0.0'
p2062
sssssssssssI-1
(dp2063
S'0.19'
p2064
(dp2065
I0
S'0.0'
p2066
sI-1
(dp2067
S'0.38'
p2068
(dp2069
I0
(dp2070
S'0.33'
p2071
(dp2072
I0
(dp2073
S'0.0'
p2074
(dp2075
I0
S'0.0'
p2076
sI1
(dp2077
S'0.0'
p2078
(dp2079
I1
(dp2080
S'0.0'
p2081
(dp2082
I-1
(dp2083
S'0.0'
p2084
(dp2085
I0
(dp2086
S'0.0'
p2087
(dp2088
I-1
(dp2089
S'0.0'
p2090
(dp2091
I-1
(dp2092
S'0.0'
p2093
(dp2094
I1
(dp2095
S'0.0'
p2096
(dp2097
I0
(dp2098
S'0.0'
p2099
(dp2100
I-2
(dp2101
S'0.0'
p2102
(dp2103
I0
(dp2104
S'0.0'
p2105
(dp2106
I-2
(dp2107
S'0.0'
p2108
(dp2109
I0
(dp2110
S'0.0'
p2111
(dp2112
I0
(dp2113
S'0.0'
p2114
(dp2115
I-2
(dp2116
S'0.0'
p2117
(dp2118
I-2
(dp2119
S'0.0'
p2120
(dp2121
I-1
(dp2122
S'0.0'
p2123
(dp2124
I-1
(dp2125
S'0.0'
p2126
(dp2127
I0
(dp2128
S'0.0'
p2129
(dp2130
I-2
(dp2131
S'0.0'
p2132
(dp2133
I0
(dp2134
S'0.0'
p2135
(dp2136
I1
S'0.0'
p2137
sssssssssssssssssssssssssssssssssssssssssssI-2
(dp2138
S'1.0'
p2139
(dp2140
I0
(dp2141
S'1.0'
p2142
(dp2143
I-1
(dp2144
S'1.0'
p2145
(dp2146
I-1
(dp2147
S'1.0'
p2148
(dp2149
I1
S'1.0'
p2150
sssssssssssI-1
(dp2151
S'0.4'
p2152
(dp2153
I0
(dp2154
S'0.25'
p2155
(dp2156
I0
S'0.0'
p2157
sI-1
(dp2158
S'0.5'
p2159
(dp2160
I1
S'1.0'
p2161
sI-2
(dp2162
S'0.0'
p2163
(dp2164
I0
(dp2165
S'0.0'
p2166
(dp2167
I-1
(dp2168
S'0.0'
p2169
(dp2170
I-2
S'0.0'
p2171
sssssssssssI-1
(dp2172
S'1.0'
p2173
(dp2174
I-1
(dp2175
S'1.0'
p2176
(dp2177
I0
(dp2178
S'1.0'
p2179
(dp2180
I-1
(dp2181
S'1.0'
p2182
(dp2183
I-1
(dp2184
S'1.0'
p2185
(dp2186
I1
(dp2187
S'1.0'
p2188
(dp2189
I0
(dp2190
S'1.0'
p2191
(dp2192
I-1
(dp2193
S'1.0'
p2194
(dp2195
I0
(dp2196
S'1.0'
p2197
(dp2198
I2
S'1.0'
p2199
sssssssssssssssssssssssssssssssssI-2
(dp2200
S'0.17'
p2201
(dp2202
I0
(dp2203
S'0.13'
p2204
(dp2205
I0
S'0.04'
p2206
sI1
(dp2207
S'0.32'
p2208
(dp2209
I0
(dp2210
S'0.41'
p2211
(dp2212
I0
(dp2213
S'0.29'
p2214
(dp2215
I0
S'0.2'
p2216
sI1
(dp2217
S'0.0'
p2218
(dp2219
I-1
(dp2220
S'0.0'
p2221
(dp2222
I0
(dp2223
S'0.0'
p2224
(dp2225
I-1
(dp2226
S'0.0'
p2227
(dp2228
I1
(dp2229
S'0.0'
p2230
(dp2231
I1
(dp2232
S'0.0'
p2233
(dp2234
I0
(dp2235
S'0.0'
p2236
(dp2237
I-1
(dp2238
S'0.0'
p2239
(dp2240
I1
(dp2241
S'0.0'
p2242
(dp2243
I-1
S'0.0'
p2244
sssssssssssssssssssI2
S'1.0'
p2245
sssI1
(dp2246
S'0.25'
p2247
(dp2248
I0
(dp2249
S'0.33'
p2250
(dp2251
I0
S'0.0'
p2252
sI-1
(dp2253
S'1.0'
p2254
(dp2255
I-1
(dp2256
S'1.0'
p2257
(dp2258
I0
(dp2259
S'1.0'
p2260
(dp2261
I0
(dp2262
S'1.0'
p2263
(dp2264
I0
(dp2265
S'1.0'
p2266
(dp2267
I0
(dp2268
S'1.0'
p2269
(dp2270
I-1
(dp2271
S'1.0'
p2272
(dp2273
I-2
(dp2274
S'1.0'
p2275
(dp2276
I1
(dp2277
S'1.0'
p2278
(dp2279
I2
S'1.0'
p2280
sssssssssssssssssssssI-1
S'0.0'
p2281
sssI-2
(dp2282
S'1.0'
p2283
(dp2284
I0
(dp2285
S'1.0'
p2286
(dp2287
I1
S'1.0'
p2288
sssI-1
(dp2289
S'1.0'
p2290
(dp2291
I0
(dp2292
S'1.0'
p2293
(dp2294
I0
(dp2295
S'1.0'
p2296
(dp2297
I2
S'1.0'
p2298
sI-2
(dp2299
S'1.0'
p2300
(dp2301
I-1
(dp2302
S'1.0'
p2303
(dp2304
I0
(dp2305
S'1.0'
p2306
(dp2307
I-1
(dp2308
S'1.0'
p2309
(dp2310
I-2
(dp2311
S'1.0'
p2312
(dp2313
I0
(dp2314
S'1.0'
p2315
(dp2316
I2
S'1.0'
p2317
sssssssssssssssssI-1
(dp2318
S'1.0'
p2319
(dp2320
I0
(dp2321
S'1.0'
p2322
(dp2323
I0
(dp2324
S'1.0'
p2325
(dp2326
I1
(dp2327
S'1.0'
p2328
(dp2329
I-1
(dp2330
S'1.0'
p2331
(dp2332
I-2
(dp2333
S'1.0'
p2334
(dp2335
I0
(dp2336
S'1.0'
p2337
(dp2338
I0
(dp2339
S'1.0'
p2340
(dp2341
I2
S'1.0'
p2342
sssssssssssssssssssssI-1
(dp2343
S'0.0'
p2344
(dp2345
I0
(dp2346
S'0.0'
p2347
(dp2348
I0
S'0.0'
p2349
sI1
(dp2350
S'0.0'
p2351
(dp2352
I-2
(dp2353
S'0.0'
p2354
(dp2355
I-1
(dp2356
S'0.0'
p2357
(dp2358
I0
(dp2359
S'0.0'
p2360
(dp2361
I-2
(dp2362
S'0.0'
p2363
(dp2364
I0
(dp2365
S'0.0'
p2366
(dp2367
I0
(dp2368
S'0.0'
p2369
(dp2370
I1
S'0.0'
p2371
sssssssssssssssssssssI-1
(dp2372
S'0.0'
p2373
(dp2374
I0
(dp2375
S'0.0'
p2376
(dp2377
I0
S'0.0'
p2378
sI-2
(dp2379
S'0.0'
p2380
(dp2381
I-1
(dp2382
S'0.0'
p2383
(dp2384
I0
(dp2385
S'0.0'
p2386
(dp2387
I1
S'0.0'
p2388
sssssssssI-1
(dp2389
S'0.0'
p2390
(dp2391
I0
S'0.0'
p2392
sI-1
(dp2393
S'0.0'
p2394
(dp2395
I-1
S'0.0'
p2396
sssssssssI-1
(dp2397
S'0.21'
p2398
(dp2399
I0
S'0.5'
p2400
sI1
(dp2401
S'0.0'
p2402
(dp2403
I0
S'0.0'
p2404
sI-1
(dp2405
S'0.0'
p2406
(dp2407
I-1
(dp2408
S'0.0'
p2409
(dp2410
I-1
S'0.0'
p2411
sssssssI-1
(dp2412
S'0.29'
p2413
(dp2414
I0
S'0.0'
p2415
sI1
(dp2416
S'0.33'
p2417
(dp2418
I-1
(dp2419
S'0.33'
p2420
(dp2421
I0
(dp2422
S'0.0'
p2423
(dp2424
I1
(dp2425
S'0.0'
p2426
(dp2427
I-1
(dp2428
S'0.0'
p2429
(dp2430
I0
(dp2431
S'0.0'
p2432
(dp2433
I1
(dp2434
S'0.0'
p2435
(dp2436
I-1
(dp2437
S'0.0'
p2438
(dp2439
I0
(dp2440
S'0.0'
p2441
(dp2442
I0
(dp2443
S'0.0'
p2444
(dp2445
I0
(dp2446
S'0.0'
p2447
(dp2448
I1
(dp2449
S'0.0'
p2450
(dp2451
I-2
(dp2452
S'0.0'
p2453
(dp2454
I-2
(dp2455
S'0.0'
p2456
(dp2457
I0
(dp2458
S'0.0'
p2459
(dp2460
I-2
(dp2461
S'0.0'
p2462
(dp2463
I0
(dp2464
S'0.0'
p2465
(dp2466
I-2
S'0.0'
p2467
sssssssssssssssssssssssssssssssI-1
(dp2468
S'0.5'
p2469
(dp2470
I0
(dp2471
S'0.5'
p2472
(dp2473
I0
(dp2474
S'0.0'
p2475
(dp2476
I0
(dp2477
S'0.0'
p2478
(dp2479
I1
S'0.0'
p2480
sssssI1
S'1.0'
p2481
sssssssssI-2
(dp2482
S'1.0'
p2483
(dp2484
I-1
(dp2485
S'1.0'
p2486
(dp2487
I-1
(dp2488
S'1.0'
p2489
(dp2490
I0
(dp2491
S'1.0'
p2492
(dp2493
I-2
(dp2494
S'1.0'
p2495
(dp2496
I-1
(dp2497
S'1.0'
p2498
(dp2499
I-1
(dp2500
S'1.0'
p2501
(dp2502
I0
(dp2503
S'1.0'
p2504
(dp2505
I1
(dp2506
S'1.0'
p2507
(dp2508
I0
(dp2509
S'1.0'
p2510
(dp2511
I-2
(dp2512
S'1.0'
p2513
(dp2514
I0
(dp2515
S'1.0'
p2516
(dp2517
I1
(dp2518
S'1.0'
p2519
(dp2520
I-1
(dp2521
S'1.0'
p2522
(dp2523
I0
(dp2524
S'1.0'
p2525
(dp2526
I1
S'1.0'
p2527
sssssssssssssssssssssssssssssssI-1
(dp2528
S'0.0'
p2529
(dp2530
I0
(dp2531
S'0.0'
p2532
(dp2533
I-2
(dp2534
S'0.0'
p2535
(dp2536
I-2
S'0.0'
p2537
sssssssssI-2
(dp2538
S'0.0'
p2539
(dp2540
I-1
(dp2541
S'0.0'
p2542
(dp2543
I-1
(dp2544
S'0.0'
p2545
(dp2546
I0
(dp2547
S'0.0'
p2548
(dp2549
I-1
S'0.0'
p2550
sssI-1
(dp2551
S'0.0'
p2552
(dp2553
I0
(dp2554
S'0.0'
p2555
(dp2556
I1
(dp2557
S'0.0'
p2558
(dp2559
I-1
(dp2560
S'0.0'
p2561
(dp2562
I-1
(dp2563
S'0.0'
p2564
(dp2565
I0
(dp2566
S'0.0'
p2567
(dp2568
I-1
(dp2569
S'0.0'
p2570
(dp2571
I-1
(dp2572
S'0.0'
p2573
(dp2574
I-2
(dp2575
S'0.0'
p2576
(dp2577
I-1
S'0.0'
p2578
sssssssssssssssssssssssssssI-2
(dp2579
S'0.0'
p2580
(dp2581
I0
(dp2582
S'0.0'
p2583
(dp2584
I-2
(dp2585
S'0.0'
p2586
(dp2587
I-1
S'0.0'
p2588
sssI-1
(dp2589
S'0.0'
p2590
(dp2591
I-1
S'0.0'
p2592
sssssI-1
(dp2593
S'0.0'
p2594
(dp2595
I0
(dp2596
S'0.0'
p2597
(dp2598
I0
S'0.0'
p2599
sI-1
(dp2600
S'0.0'
p2601
(dp2602
I-2
(dp2603
S'0.0'
p2604
(dp2605
I-1
S'0.0'
p2606
sssssssI-1
(dp2607
S'0.0'
p2608
(dp2609
I-1
(dp2610
S'0.0'
p2611
(dp2612
I0
(dp2613
S'0.0'
p2614
(dp2615
I0
(dp2616
S'0.0'
p2617
(dp2618
I-2
(dp2619
S'0.0'
p2620
(dp2621
I1
S'0.0'
p2622
sssssssssssssssssI-1
(dp2623
S'0.19'
p2624
(dp2625
I0
(dp2626
S'0.21'
p2627
(dp2628
I0
(dp2629
S'0.15'
p2630
(dp2631
I0
S'0.0'
p2632
sI1
(dp2633
S'0.5'
p2634
(dp2635
I1
(dp2636
S'0.5'
p2637
(dp2638
I0
S'1.0'
p2639
sI-1
(dp2640
S'0.0'
p2641
(dp2642
I-1
(dp2643
S'0.0'
p2644
(dp2645
I-1
S'0.0'
p2646
sssssssI-2
(dp2647
S'0.5'
p2648
(dp2649
I-1
(dp2650
S'0.5'
p2651
(dp2652
I0
(dp2653
S'0.0'
p2654
(dp2655
I-1
(dp2656
S'0.0'
p2657
(dp2658
I-2
(dp2659
S'0.0'
p2660
(dp2661
I0
(dp2662
S'0.0'
p2663
(dp2664
I-2
S'0.0'
p2665
sssssssssI-1
(dp2666
S'1.0'
p2667
(dp2668
I-1
(dp2669
S'1.0'
p2670
(dp2671
I-1
(dp2672
S'1.0'
p2673
(dp2674
I-1
(dp2675
S'1.0'
p2676
(dp2677
I-1
(dp2678
S'1.0'
p2679
(dp2680
I-1
(dp2681
S'1.0'
p2682
(dp2683
I-1
(dp2684
S'1.0'
p2685
(dp2686
I-1
(dp2687
S'1.0'
p2688
(dp2689
I-1
(dp2690
S'1.0'
p2691
(dp2692
I0
(dp2693
S'1.0'
p2694
(dp2695
I1
S'1.0'
p2696
sssssssssssssssssssssssssssI2
(dp2697
S'1.0'
p2698
(dp2699
I0
S'1.0'
p2700
sI-1
(dp2701
S'1.0'
p2702
(dp2703
I0
(dp2704
S'1.0'
p2705
(dp2706
I1
S'1.0'
p2707
sssssssI-2
(dp2708
S'1.0'
p2709
(dp2710
I-1
(dp2711
S'1.0'
p2712
(dp2713
I0
(dp2714
S'1.0'
p2715
(dp2716
I2
(dp2717
S'1.0'
p2718
(dp2719
I0
(dp2720
S'1.0'
p2721
(dp2722
I0
(dp2723
S'1.0'
p2724
(dp2725
I0
(dp2726
S'1.0'
p2727
(dp2728
I-2
(dp2729
S'1.0'
p2730
(dp2731
I2
S'1.0'
p2732
sssssssssssssssssssI1
(dp2733
S'0.25'
p2734
(dp2735
I0
(dp2736
S'0.0'
p2737
(dp2738
I1
(dp2739
S'0.0'
p2740
(dp2741
I0
(dp2742
S'0.0'
p2743
(dp2744
I0
(dp2745
S'0.0'
p2746
(dp2747
I1
(dp2748
S'0.0'
p2749
(dp2750
I0
(dp2751
S'0.0'
p2752
(dp2753
I-2
(dp2754
S'0.0'
p2755
(dp2756
I0
(dp2757
S'0.0'
p2758
(dp2759
I2
(dp2760
S'0.0'
p2761
(dp2762
I-1
(dp2763
S'0.0'
p2764
(dp2765
I-1
(dp2766
S'0.0'
p2767
(dp2768
I-1
(dp2769
S'0.0'
p2770
(dp2771
I0
(dp2772
S'0.0'
p2773
(dp2774
I-1
S'0.0'
p2775
sssssssssssssssssssssssssI-2
(dp2776
S'0.0'
p2777
(dp2778
I-1
S'0.0'
p2779
sssssI-1
(dp2780
S'0.5'
p2781
(dp2782
I0
(dp2783
S'0.0'
p2784
(dp2785
I-1
(dp2786
S'0.0'
p2787
(dp2788
I-2
S'0.0'
p2789
sssssI-1
(dp2790
S'1.0'
p2791
(dp2792
I-1
(dp2793
S'1.0'
p2794
(dp2795
I-1
(dp2796
S'1.0'
p2797
(dp2798
I-1
(dp2799
S'1.0'
p2800
(dp2801
I0
(dp2802
S'1.0'
p2803
(dp2804
I-2
(dp2805
S'1.0'
p2806
(dp2807
I0
(dp2808
S'1.0'
p2809
(dp2810
I1
(dp2811
S'1.0'
p2812
(dp2813
I-1
(dp2814
S'1.0'
p2815
(dp2816
I0
(dp2817
S'1.0'
p2818
(dp2819
I0
(dp2820
S'1.0'
p2821
(dp2822
I2
S'1.0'
p2823
sssssssssssssssssssssssssssI-2
(dp2824
S'0.0'
p2825
(dp2826
I0
(dp2827
S'0.0'
p2828
(dp2829
I0
S'0.0'
p2830
sI-1
S'0.0'
p2831
sssI-1
(dp2832
S'0.0'
p2833
(dp2834
I-1
(dp2835
S'0.0'
p2836
(dp2837
I0
(dp2838
S'0.0'
p2839
(dp2840
I-2
(dp2841
S'0.0'
p2842
(dp2843
I-1
(dp2844
S'0.0'
p2845
(dp2846
I0
(dp2847
S'0.0'
p2848
(dp2849
I-2
(dp2850
S'0.0'
p2851
(dp2852
I-1
(dp2853
S'0.0'
p2854
(dp2855
I-1
(dp2856
S'0.0'
p2857
(dp2858
I-1
(dp2859
S'0.0'
p2860
(dp2861
I-1
(dp2862
S'0.0'
p2863
(dp2864
I0
(dp2865
S'0.0'
p2866
(dp2867
I0
(dp2868
S'0.0'
p2869
(dp2870
I-2
(dp2871
S'0.0'
p2872
(dp2873
I-2
(dp2874
S'0.0'
p2875
(dp2876
I-1
(dp2877
S'0.0'
p2878
(dp2879
I0
(dp2880
S'0.0'
p2881
(dp2882
I-2
(dp2883
S'0.0'
p2884
(dp2885
I-1
(dp2886
S'0.0'
p2887
(dp2888
I-1
(dp2889
S'0.0'
p2890
(dp2891
I0
(dp2892
S'0.0'
p2893
(dp2894
I-2
(dp2895
S'0.0'
p2896
(dp2897
I-1
S'0.0'
p2898
sssssssssssssssssssssssssssssssssssssssssssssssI-1
(dp2899
S'0.5'
p2900
(dp2901
I0
(dp2902
S'0.25'
p2903
(dp2904
I0
S'0.0'
p2905
sI-1
(dp2906
S'0.5'
p2907
(dp2908
I2
S'1.0'
p2909
sI-1
(dp2910
S'0.0'
p2911
(dp2912
I-1
(dp2913
S'0.0'
p2914
(dp2915
I-2
(dp2916
S'0.0'
p2917
(dp2918
I-2
(dp2919
S'0.0'
p2920
(dp2921
I0
(dp2922
S'0.0'
p2923
(dp2924
I-1
(dp2925
S'0.0'
p2926
(dp2927
I-1
S'0.0'
p2928
sssssssssssssssssI1
(dp2929
S'1.0'
p2930
(dp2931
I-1
(dp2932
S'1.0'
p2933
(dp2934
I0
(dp2935
S'1.0'
p2936
(dp2937
I-1
(dp2938
S'1.0'
p2939
(dp2940
I-1
(dp2941
S'1.0'
p2942
(dp2943
I-2
(dp2944
S'1.0'
p2945
(dp2946
I-1
(dp2947
S'1.0'
p2948
(dp2949
I0
(dp2950
S'1.0'
p2951
(dp2952
I0
(dp2953
S'1.0'
p2954
(dp2955
I2
S'1.0'
p2956
sssssssssssssssI-1
(dp2957
S'1.0'
p2958
(dp2959
I-1
(dp2960
S'1.0'
p2961
(dp2962
I-1
(dp2963
S'1.0'
p2964
(dp2965
I0
(dp2966
S'1.0'
p2967
(dp2968
I0
(dp2969
S'1.0'
p2970
(dp2971
I-1
(dp2972
S'1.0'
p2973
(dp2974
I2
S'1.0'
p2975
sssssssssssssssssI-2
(dp2976
S'0.5'
p2977
(dp2978
I0
(dp2979
S'0.0'
p2980
(dp2981
I1
(dp2982
S'0.0'
p2983
(dp2984
I-1
(dp2985
S'0.0'
p2986
(dp2987
I-1
(dp2988
S'0.0'
p2989
(dp2990
I0
(dp2991
S'0.0'
p2992
(dp2993
I0
(dp2994
S'0.0'
p2995
(dp2996
I-2
(dp2997
S'0.0'
p2998
(dp2999
I-2
(dp3000
S'0.0'
p3001
(dp3002
I0
(dp3003
S'0.0'
p3004
(dp3005
I1
(dp3006
S'0.0'
p3007
(dp3008
I-1
(dp3009
S'0.0'
p3010
(dp3011
I0
(dp3012
S'0.0'
p3013
(dp3014
I-2
(dp3015
S'0.0'
p3016
(dp3017
I-1
(dp3018
S'0.0'
p3019
(dp3020
I0
(dp3021
S'0.0'
p3022
(dp3023
I-2
(dp3024
S'0.0'
p3025
(dp3026
I0
(dp3027
S'0.0'
p3028
(dp3029
I-2
S'0.0'
p3030
sssssssssssssssssssssssssssssssssssI-1
(dp3031
S'0.67'
p3032
(dp3033
I-1
(dp3034
S'0.67'
p3035
(dp3036
I0
(dp3037
S'1.0'
p3038
(dp3039
I1
S'1.0'
p3040
sssI-1
(dp3041
S'0.5'
p3042
(dp3043
I0
(dp3044
S'1.0'
p3045
(dp3046
I1
(dp3047
S'1.0'
p3048
(dp3049
I-1
(dp3050
S'1.0'
p3051
(dp3052
I-1
(dp3053
S'1.0'
p3054
(dp3055
I-1
(dp3056
S'1.0'
p3057
(dp3058
I-1
(dp3059
S'1.0'
p3060
(dp3061
I0
(dp3062
S'1.0'
p3063
(dp3064
I-2
(dp3065
S'1.0'
p3066
(dp3067
I0
(dp3068
S'1.0'
p3069
(dp3070
I0
(dp3071
S'1.0'
p3072
(dp3073
I-1
(dp3074
S'1.0'
p3075
(dp3076
I2
S'1.0'
p3077
sssssssssssssssssssssssI-1
(dp3078
S'0.0'
p3079
(dp3080
I-1
(dp3081
S'0.0'
p3082
(dp3083
I-1
(dp3084
S'0.0'
p3085
(dp3086
I-1
(dp3087
S'0.0'
p3088
(dp3089
I-1
S'0.0'
p3090
sssssssssssssssssssssI-1
(dp3091
S'0.18'
p3092
(dp3093
I0
(dp3094
S'0.21'
p3095
(dp3096
I0
S'0.0'
p3097
sI1
(dp3098
S'0.43'
p3099
(dp3100
I0
(dp3101
S'0.43'
p3102
(dp3103
I0
(dp3104
S'0.67'
p3105
(dp3106
I0
S'0.0'
p3107
sI1
(dp3108
S'1.0'
p3109
(dp3110
I0
(dp3111
S'1.0'
p3112
(dp3113
I1
(dp3114
S'1.0'
p3115
(dp3116
I1
(dp3117
S'1.0'
p3118
(dp3119
I-1
(dp3120
S'1.0'
p3121
(dp3122
I0
(dp3123
S'1.0'
p3124
(dp3125
I-2
(dp3126
S'1.0'
p3127
(dp3128
I-1
(dp3129
S'1.0'
p3130
(dp3131
I0
(dp3132
S'1.0'
p3133
(dp3134
I0
(dp3135
S'1.0'
p3136
(dp3137
I2
S'1.0'
p3138
sssssssssssssssssssssI2
S'1.0'
p3139
sssI1
(dp3140
S'0.0'
p3141
(dp3142
I-1
(dp3143
S'0.0'
p3144
(dp3145
I0
(dp3146
S'0.0'
p3147
(dp3148
I-1
(dp3149
S'0.0'
p3150
(dp3151
I1
(dp3152
S'0.0'
p3153
(dp3154
I0
(dp3155
S'0.0'
p3156
(dp3157
I-1
(dp3158
S'0.0'
p3159
(dp3160
I-2
S'0.0'
p3161
sssssssssssssssI-2
(dp3162
S'0.33'
p3163
(dp3164
I0
(dp3165
S'0.0'
p3166
(dp3167
I-2
(dp3168
S'0.0'
p3169
(dp3170
I0
(dp3171
S'0.0'
p3172
(dp3173
I1
S'0.0'
p3174
sssssssI-1
(dp3175
S'0.5'
p3176
(dp3177
I0
S'0.0'
p3178
sI-1
(dp3179
S'1.0'
p3180
(dp3181
I0
(dp3182
S'1.0'
p3183
(dp3184
I1
(dp3185
S'1.0'
p3186
(dp3187
I-1
(dp3188
S'1.0'
p3189
(dp3190
I-1
(dp3191
S'1.0'
p3192
(dp3193
I0
(dp3194
S'1.0'
p3195
(dp3196
I-1
(dp3197
S'1.0'
p3198
(dp3199
I1
S'1.0'
p3200
sssssssssssssssssssssssI-2
(dp3201
S'0.2'
p3202
(dp3203
I0
(dp3204
S'0.0'
p3205
(dp3206
I0
S'0.0'
p3207
sI-1
(dp3208
S'0.0'
p3209
(dp3210
I1
(dp3211
S'0.0'
p3212
(dp3213
I-1
S'0.0'
p3214
sssssssI-1
(dp3215
S'0.33'
p3216
(dp3217
I0
(dp3218
S'0.5'
p3219
(dp3220
I0
S'0.0'
p3221
sI-2
(dp3222
S'1.0'
p3223
(dp3224
I-1
(dp3225
S'1.0'
p3226
(dp3227
I-1
(dp3228
S'1.0'
p3229
(dp3230
I0
(dp3231
S'1.0'
p3232
(dp3233
I0
(dp3234
S'1.0'
p3235
(dp3236
I2
S'1.0'
p3237
sssssssssssssI-1
(dp3238
S'0.0'
p3239
(dp3240
I-1
S'0.0'
p3241
sssssssI-1
(dp3242
S'0.33'
p3243
(dp3244
I0
S'0.0'
p3245
sI1
(dp3246
S'0.5'
p3247
(dp3248
I0
(dp3249
S'0.0'
p3250
(dp3251
I-1
(dp3252
S'0.0'
p3253
(dp3254
I-1
(dp3255
S'0.0'
p3256
(dp3257
I-2
(dp3258
S'0.0'
p3259
(dp3260
I0
(dp3261
S'0.0'
p3262
(dp3263
I1
(dp3264
S'0.0'
p3265
(dp3266
I-1
(dp3267
S'0.0'
p3268
(dp3269
I-1
(dp3270
S'0.0'
p3271
(dp3272
I-1
S'0.0'
p3273
sssssssssssssssssI-1
(dp3274
S'0.67'
p3275
(dp3276
I0
(dp3277
S'0.67'
p3278
(dp3279
I1
(dp3280
S'1.0'
p3281
(dp3282
I0
(dp3283
S'1.0'
p3284
(dp3285
I-2
(dp3286
S'1.0'
p3287
(dp3288
I0
(dp3289
S'1.0'
p3290
(dp3291
I-2
(dp3292
S'1.0'
p3293
(dp3294
I0
(dp3295
S'1.0'
p3296
(dp3297
I-2
(dp3298
S'1.0'
p3299
(dp3300
I-1
(dp3301
S'1.0'
p3302
(dp3303
I0
(dp3304
S'1.0'
p3305
(dp3306
I-2
(dp3307
S'1.0'
p3308
(dp3309
I-1
(dp3310
S'1.0'
p3311
(dp3312
I0
(dp3313
S'1.0'
p3314
(dp3315
I0
(dp3316
S'1.0'
p3317
(dp3318
I2
S'1.0'
p3319
sssssssssssssssssssssssssssI-1
(dp3320
S'0.5'
p3321
(dp3322
I-2
(dp3323
S'0.5'
p3324
(dp3325
I0
(dp3326
S'0.5'
p3327
(dp3328
I-1
(dp3329
S'1.0'
p3330
(dp3331
I0
(dp3332
S'1.0'
p3333
(dp3334
I1
(dp3335
S'1.0'
p3336
(dp3337
I0
(dp3338
S'1.0'
p3339
(dp3340
I-2
(dp3341
S'1.0'
p3342
(dp3343
I1
(dp3344
S'1.0'
p3345
(dp3346
I0
(dp3347
S'1.0'
p3348
(dp3349
I1
S'1.0'
p3350
sssssssssssssssI-2
(dp3351
S'0.0'
p3352
(dp3353
I-1
S'0.0'
p3354
sssssssssssssssI-1
(dp3355
S'0.0'
p3356
(dp3357
I-2
(dp3358
S'0.0'
p3359
(dp3360
I-1
S'0.0'
p3361
sssssssssI-1
(dp3362
S'0.15'
p3363
(dp3364
I0
(dp3365
S'0.08'
p3366
(dp3367
I0
(dp3368
S'0.0'
p3369
(dp3370
I0
S'0.0'
p3371
sI-2
(dp3372
S'0.0'
p3373
(dp3374
I0
(dp3375
S'0.0'
p3376
(dp3377
I-2
(dp3378
S'0.0'
p3379
(dp3380
I1
(dp3381
S'0.0'
p3382
(dp3383
I0
(dp3384
S'0.0'
p3385
(dp3386
I-2
(dp3387
S'0.0'
p3388
(dp3389
I-1
(dp3390
S'0.0'
p3391
(dp3392
I0
(dp3393
S'0.0'
p3394
(dp3395
I-1
(dp3396
S'0.0'
p3397
(dp3398
I-1
(dp3399
S'0.0'
p3400
(dp3401
I-2
(dp3402
S'0.0'
p3403
(dp3404
I0
(dp3405
S'0.0'
p3406
(dp3407
I1
(dp3408
S'0.0'
p3409
(dp3410
I-1
S'0.0'
p3411
sssssssssssssssssssssssssssssI1
(dp3412
S'0.0'
p3413
(dp3414
I0
(dp3415
S'0.0'
p3416
(dp3417
I0
(dp3418
S'0.0'
p3419
(dp3420
I0
(dp3421
S'0.0'
p3422
(dp3423
I-1
S'0.0'
p3424
sssssI-2
(dp3425
S'0.0'
p3426
(dp3427
I-1
(dp3428
S'0.0'
p3429
(dp3430
I-1
(dp3431
S'0.0'
p3432
(dp3433
I-1
(dp3434
S'0.0'
p3435
(dp3436
I-1
(dp3437
S'0.0'
p3438
(dp3439
I0
(dp3440
S'0.0'
p3441
(dp3442
I-2
(dp3443
S'0.0'
p3444
(dp3445
I0
(dp3446
S'0.0'
p3447
(dp3448
I-1
(dp3449
S'0.0'
p3450
(dp3451
I-1
(dp3452
S'0.0'
p3453
(dp3454
I-1
(dp3455
S'0.0'
p3456
(dp3457
I-2
(dp3458
S'0.0'
p3459
(dp3460
I-1
S'0.0'
p3461
sssssssssssssssssssssssssssI-1
(dp3462
S'0.0'
p3463
(dp3464
I-1
(dp3465
S'0.0'
p3466
(dp3467
I-1
(dp3468
S'0.0'
p3469
(dp3470
I-1
S'0.0'
p3471
sssssssssI-1
(dp3472
S'0.33'
p3473
(dp3474
I0
(dp3475
S'0.0'
p3476
(dp3477
I0
S'0.0'
p3478
sI-1
(dp3479
S'0.0'
p3480
(dp3481
I-2
(dp3482
S'0.0'
p3483
(dp3484
I0
(dp3485
S'0.0'
p3486
(dp3487
I1
S'0.0'
p3488
sssssssssI-1
(dp3489
S'1.0'
p3490
(dp3491
I0
(dp3492
S'1.0'
p3493
(dp3494
I1
(dp3495
S'1.0'
p3496
(dp3497
I0
(dp3498
S'1.0'
p3499
(dp3500
I1
S'1.0'
p3501
sssssssssssI-2
(dp3502
S'0.0'
p3503
(dp3504
I0
(dp3505
S'0.0'
p3506
(dp3507
I1
(dp3508
S'0.0'
p3509
(dp3510
I-1
(dp3511
S'0.0'
p3512
(dp3513
I-1
S'0.0'
p3514
sssssssI-1
S'0.0'
p3515
sssssI-1
(dp3516
S'0.2'
p3517
(dp3518
I0
S'0.14'
p3519
sI-1
(dp3520
S'0.25'
p3521
(dp3522
I0
(dp3523
S'0.25'
p3524
(dp3525
I0
S'0.0'
p3526
sI1
(dp3527
S'0.0'
p3528
(dp3529
I-1
(dp3530
S'0.0'
p3531
(dp3532
I0
(dp3533
S'0.0'
p3534
(dp3535
I1
(dp3536
S'0.0'
p3537
(dp3538
I0
(dp3539
S'0.0'
p3540
(dp3541
I-2
(dp3542
S'0.0'
p3543
(dp3544
I0
(dp3545
S'0.0'
p3546
(dp3547
I-1
(dp3548
S'0.0'
p3549
(dp3550
I-1
(dp3551
S'0.0'
p3552
(dp3553
I-1
S'0.0'
p3554
sssssssssssssssssssI-1
(dp3555
S'0.5'
p3556
(dp3557
I1
(dp3558
S'1.0'
p3559
(dp3560
I-1
(dp3561
S'1.0'
p3562
(dp3563
I0
(dp3564
S'1.0'
p3565
(dp3566
I0
(dp3567
S'1.0'
p3568
(dp3569
I-2
(dp3570
S'1.0'
p3571
(dp3572
I-1
(dp3573
S'1.0'
p3574
(dp3575
I-1
(dp3576
S'1.0'
p3577
(dp3578
I-1
(dp3579
S'1.0'
p3580
(dp3581
I-1
(dp3582
S'1.0'
p3583
(dp3584
I0
(dp3585
S'1.0'
p3586
(dp3587
I2
S'1.0'
p3588
sssssssssssssssssssssI-1
(dp3589
S'0.0'
p3590
(dp3591
I0
(dp3592
S'0.0'
p3593
(dp3594
I-1
(dp3595
S'0.0'
p3596
(dp3597
I1
(dp3598
S'0.0'
p3599
(dp3600
I-2
(dp3601
S'0.0'
p3602
(dp3603
I-1
(dp3604
S'0.0'
p3605
(dp3606
I-1
(dp3607
S'0.0'
p3608
(dp3609
I-1
(dp3610
S'0.0'
p3611
(dp3612
I-1
(dp3613
S'0.0'
p3614
(dp3615
I-1
S'0.0'
p3616
sssssssssssssssssssssssI-1
(dp3617
S'0.25'
p3618
(dp3619
I0
(dp3620
S'0.0'
p3621
(dp3622
I-1
S'0.0'
p3623
sssI-1
(dp3624
S'0.33'
p3625
(dp3626
I-1
(dp3627
S'0.33'
p3628
(dp3629
I-1
(dp3630
S'0.33'
p3631
(dp3632
I0
(dp3633
S'1.0'
p3634
(dp3635
I1
S'1.0'
p3636
sssI-1
(dp3637
S'0.0'
p3638
(dp3639
I0
(dp3640
S'0.0'
p3641
(dp3642
I-2
(dp3643
S'0.0'
p3644
(dp3645
I-1
(dp3646
S'0.0'
p3647
(dp3648
I0
(dp3649
S'0.0'
p3650
(dp3651
I-1
(dp3652
S'0.0'
p3653
(dp3654
I1
(dp3655
S'0.0'
p3656
(dp3657
I-1
(dp3658
S'0.0'
p3659
(dp3660
I-1
(dp3661
S'0.0'
p3662
(dp3663
I-1
(dp3664
S'0.0'
p3665
(dp3666
I0
(dp3667
S'0.0'
p3668
(dp3669
I-1
(dp3670
S'0.0'
p3671
(dp3672
I-2
S'0.0'
p3673
sssssssssssssssssssssssI-1
(dp3674
S'0.0'
p3675
(dp3676
I0
(dp3677
S'0.0'
p3678
(dp3679
I1
S'0.0'
p3680
sssssssssssssssssssssssssssI-1
(dp3681
S'0.26'
p3682
(dp3683
I0
(dp3684
S'0.21'
p3685
(dp3686
I0
(dp3687
S'0.04'
p3688
(dp3689
I0
S'0.0'
p3690
sI1
(dp3691
S'1.0'
p3692
(dp3693
I-2
(dp3694
S'1.0'
p3695
(dp3696
I-1
(dp3697
S'1.0'
p3698
(dp3699
I-1
(dp3700
S'1.0'
p3701
(dp3702
I-1
(dp3703
S'1.0'
p3704
(dp3705
I-1
(dp3706
S'1.0'
p3707
(dp3708
I1
(dp3709
S'1.0'
p3710
(dp3711
I-1
(dp3712
S'1.0'
p3713
(dp3714
I-1
(dp3715
S'1.0'
p3716
(dp3717
I-1
(dp3718
S'1.0'
p3719
(dp3720
I0
(dp3721
S'1.0'
p3722
(dp3723
I-1
(dp3724
S'1.0'
p3725
(dp3726
I1
S'1.0'
p3727
sssssssssssssssssssssssssI-2
(dp3728
S'0.0'
p3729
(dp3730
I-1
S'0.0'
p3731
sssssI1
(dp3732
S'0.33'
p3733
(dp3734
I0
(dp3735
S'0.33'
p3736
(dp3737
I0
S'0.0'
p3738
sI-1
(dp3739
S'0.5'
p3740
(dp3741
I1
(dp3742
S'0.5'
p3743
(dp3744
I-2
(dp3745
S'0.5'
p3746
(dp3747
I0
(dp3748
S'0.0'
p3749
(dp3750
I-2
(dp3751
S'0.0'
p3752
(dp3753
I0
(dp3754
S'0.0'
p3755
(dp3756
I0
(dp3757
S'0.0'
p3758
(dp3759
I1
(dp3760
S'0.0'
p3761
(dp3762
I1
S'0.0'
p3763
sssssssssssI-1
(dp3764
S'1.0'
p3765
(dp3766
I0
(dp3767
S'1.0'
p3768
(dp3769
I-2
(dp3770
S'1.0'
p3771
(dp3772
I0
(dp3773
S'1.0'
p3774
(dp3775
I1
S'1.0'
p3776
sssssssssssssssssI-1
(dp3777
S'0.0'
p3778
(dp3779
I-1
(dp3780
S'0.0'
p3781
(dp3782
I-1
(dp3783
S'0.0'
p3784
(dp3785
I-1
(dp3786
S'0.0'
p3787
(dp3788
I-2
S'0.0'
p3789
sssssssssI-2
(dp3790
S'0.5'
p3791
(dp3792
I0
(dp3793
S'0.0'
p3794
(dp3795
I-2
(dp3796
S'0.0'
p3797
(dp3798
I-1
(dp3799
S'0.0'
p3800
(dp3801
I0
(dp3802
S'0.0'
p3803
(dp3804
I1
S'0.0'
p3805
sssssssssI-1
(dp3806
S'1.0'
p3807
(dp3808
I0
(dp3809
S'1.0'
p3810
(dp3811
I-1
(dp3812
S'1.0'
p3813
(dp3814
I-2
(dp3815
S'1.0'
p3816
(dp3817
I0
(dp3818
S'1.0'
p3819
(dp3820
I-1
(dp3821
S'1.0'
p3822
(dp3823
I-1
(dp3824
S'1.0'
p3825
(dp3826
I-2
(dp3827
S'1.0'
p3828
(dp3829
I0
(dp3830
S'1.0'
p3831
(dp3832
I-1
(dp3833
S'1.0'
p3834
(dp3835
I1
(dp3836
S'1.0'
p3837
(dp3838
I-1
(dp3839
S'1.0'
p3840
(dp3841
I-1
(dp3842
S'1.0'
p3843
(dp3844
I-1
(dp3845
S'1.0'
p3846
(dp3847
I0
(dp3848
S'1.0'
p3849
(dp3850
I-1
(dp3851
S'1.0'
p3852
(dp3853
I1
S'1.0'
p3854
sssssssssssssssssssssssssssssssssssssI2
(dp3855
S'0.67'
p3856
(dp3857
I0
S'0.5'
p3858
sI-1
(dp3859
S'1.0'
p3860
(dp3861
I0
(dp3862
S'1.0'
p3863
(dp3864
I1
(dp3865
S'1.0'
p3866
(dp3867
I0
(dp3868
S'1.0'
p3869
(dp3870
I-1
(dp3871
S'1.0'
p3872
(dp3873
I0
(dp3874
S'1.0'
p3875
(dp3876
I2
S'1.0'
p3877
sssssssssssssssI-1
(dp3878
S'0.38'
p3879
(dp3880
I1
(dp3881
S'0.0'
p3882
(dp3883
I0
S'0.0'
p3884
sI1
(dp3885
S'0.0'
p3886
(dp3887
I-1
(dp3888
S'0.0'
p3889
(dp3890
I0
(dp3891
S'0.0'
p3892
(dp3893
I-2
S'0.0'
p3894
sssssssI-2
(dp3895
S'0.0'
p3896
(dp3897
I-1
(dp3898
S'0.0'
p3899
(dp3900
I0
(dp3901
S'0.0'
p3902
(dp3903
I-1
(dp3904
S'0.0'
p3905
(dp3906
I-2
(dp3907
S'0.0'
p3908
(dp3909
I-1
S'0.0'
p3910
sssssssssssssI2
S'1.0'
p3911
sI-1
(dp3912
S'0.67'
p3913
(dp3914
I0
(dp3915
S'1.0'
p3916
(dp3917
I-1
(dp3918
S'1.0'
p3919
(dp3920
I0
(dp3921
S'1.0'
p3922
(dp3923
I1
(dp3924
S'1.0'
p3925
(dp3926
I0
(dp3927
S'1.0'
p3928
(dp3929
I-2
(dp3930
S'1.0'
p3931
(dp3932
I1
(dp3933
S'1.0'
p3934
(dp3935
I-2
(dp3936
S'1.0'
p3937
(dp3938
I0
(dp3939
S'1.0'
p3940
(dp3941
I0
(dp3942
S'1.0'
p3943
(dp3944
I2
S'1.0'
p3945
sssssssssssssssssssssI1
S'0.0'
p3946
sI-1
(dp3947
S'1.0'
p3948
(dp3949
I-2
(dp3950
S'1.0'
p3951
(dp3952
I-2
(dp3953
S'1.0'
p3954
(dp3955
I0
(dp3956
S'1.0'
p3957
(dp3958
I-2
(dp3959
S'1.0'
p3960
(dp3961
I-1
(dp3962
S'1.0'
p3963
(dp3964
I0
(dp3965
S'1.0'
p3966
(dp3967
I-1
(dp3968
S'1.0'
p3969
(dp3970
I0
(dp3971
S'1.0'
p3972
(dp3973
I-1
(dp3974
S'1.0'
p3975
(dp3976
I1
S'1.0'
p3977
sssssssssssssssssssssssI-2
(dp3978
S'0.0'
p3979
(dp3980
I1
(dp3981
S'0.0'
p3982
(dp3983
I0
(dp3984
S'0.0'
p3985
(dp3986
I-1
(dp3987
S'0.0'
p3988
(dp3989
I-1
S'0.0'
p3990
sssssssssssI-2
(dp3991
S'0.33'
p3992
(dp3993
I0
(dp3994
S'0.5'
p3995
(dp3996
I0
S'0.0'
p3997
sI2
S'1.0'
p3998
sI-2
(dp3999
S'1.0'
p4000
(dp4001
I-2
(dp4002
S'1.0'
p4003
(dp4004
I-1
(dp4005
S'1.0'
p4006
(dp4007
I-1
(dp4008
S'1.0'
p4009
(dp4010
I0
(dp4011
S'1.0'
p4012
(dp4013
I1
S'1.0'
p4014
sssssssssssssI1
(dp4015
S'0.0'
p4016
(dp4017
I0
(dp4018
S'0.0'
p4019
(dp4020
I-1
(dp4021
S'0.0'
p4022
(dp4023
I0
(dp4024
S'0.0'
p4025
(dp4026
I-1
(dp4027
S'0.0'
p4028
(dp4029
I-2
(dp4030
S'0.0'
p4031
(dp4032
I-2
S'0.0'
p4033
sssssssssssI-1
S'0.0'
p4034
sssssssI1
(dp4035
S'0.3'
p4036
(dp4037
I0
(dp4038
S'0.33'
p4039
(dp4040
I0
(dp4041
S'0.3'
p4042
(dp4043
I0
S'0.23'
p4044
sI2
S'1.0'
p4045
sI-1
(dp4046
S'0.0'
p4047
(dp4048
I0
S'0.0'
p4049
sI2
(dp4050
S'0.0'
p4051
(dp4052
I-1
(dp4053
S'0.0'
p4054
(dp4055
I0
(dp4056
S'0.0'
p4057
(dp4058
I-1
(dp4059
S'0.0'
p4060
(dp4061
I1
(dp4062
S'0.0'
p4063
(dp4064
I0
(dp4065
S'0.0'
p4066
(dp4067
I1
(dp4068
S'0.0'
p4069
(dp4070
I0
(dp4071
S'0.0'
p4072
(dp4073
I-1
(dp4074
S'0.0'
p4075
(dp4076
I1
(dp4077
S'0.0'
p4078
(dp4079
I-1
S'0.0'
p4080
sssssssssssssssssssssssI-2
(dp4081
S'0.33'
p4082
(dp4083
I1
S'1.0'
p4084
sI-1
S'0.0'
p4085
sI-2
(dp4086
S'0.0'
p4087
(dp4088
I-1
(dp4089
S'0.0'
p4090
(dp4091
I0
(dp4092
S'0.0'
p4093
(dp4094
I-2
(dp4095
S'0.0'
p4096
(dp4097
I-1
S'0.0'
p4098
sssssssssssssI1
(dp4099
S'0.5'
p4100
(dp4101
I0
(dp4102
S'0.67'
p4103
(dp4104
I0
S'1.0'
p4105
sI-1
(dp4106
S'0.0'
p4107
(dp4108
I-2
(dp4109
S'0.0'
p4110
(dp4111
I-1
(dp4112
S'0.0'
p4113
(dp4114
I-1
S'0.0'
p4115
sssssssssI-1
(dp4116
S'0.33'
p4117
(dp4118
I0
S'0.5'
p4119
sI-1
(dp4120
S'0.0'
p4121
(dp4122
I-1
(dp4123
S'0.0'
p4124
(dp4125
I-1
(dp4126
S'0.0'
p4127
(dp4128
I-1
(dp4129
S'0.0'
p4130
(dp4131
I-1
(dp4132
S'0.0'
p4133
(dp4134
I-1
(dp4135
S'0.0'
p4136
(dp4137
I-1
(dp4138
S'0.0'
p4139
(dp4140
I-1
(dp4141
S'0.0'
p4142
(dp4143
I0
(dp4144
S'0.0'
p4145
(dp4146
I-2
(dp4147
S'0.0'
p4148
(dp4149
I-1
(dp4150
S'0.0'
p4151
(dp4152
I-1
(dp4153
S'0.0'
p4154
(dp4155
I-1
S'0.0'
p4156
sssssssssssssssssssssssssssssI-2
(dp4157
S'0.29'
p4158
(dp4159
I0
(dp4160
S'0.33'
p4161
(dp4162
I0
(dp4163
S'0.25'
p4164
(dp4165
I0
S'0.0'
p4166
sI2
S'1.0'
p4167
sI-1
(dp4168
S'0.0'
p4169
(dp4170
I-2
(dp4171
S'0.0'
p4172
(dp4173
I-1
(dp4174
S'0.0'
p4175
(dp4176
I-1
(dp4177
S'0.0'
p4178
(dp4179
I-2
S'0.0'
p4180
sssssssssssI-1
(dp4181
S'0.5'
p4182
(dp4183
I0
S'0.0'
p4184
sI1
(dp4185
S'1.0'
p4186
(dp4187
I0
(dp4188
S'1.0'
p4189
(dp4190
I-1
(dp4191
S'1.0'
p4192
(dp4193
I-2
(dp4194
S'1.0'
p4195
(dp4196
I0
(dp4197
S'1.0'
p4198
(dp4199
I1
(dp4200
S'1.0'
p4201
(dp4202
I0
(dp4203
S'1.0'
p4204
(dp4205
I-1
(dp4206
S'1.0'
p4207
(dp4208
I1
(dp4209
S'1.0'
p4210
(dp4211
I0
(dp4212
S'1.0'
p4213
(dp4214
I1
S'1.0'
p4215
sssssssssssssssssssssssI-2
(dp4216
S'0.33'
p4217
(dp4218
I0
(dp4219
S'0.33'
p4220
(dp4221
I0
S'0.0'
p4222
sI1
(dp4223
S'0.5'
p4224
(dp4225
I0
S'0.0'
p4226
sI-1
(dp4227
S'1.0'
p4228
(dp4229
I0
(dp4230
S'1.0'
p4231
(dp4232
I-2
(dp4233
S'1.0'
p4234
(dp4235
I0
(dp4236
S'1.0'
p4237
(dp4238
I-1
(dp4239
S'1.0'
p4240
(dp4241
I0
(dp4242
S'1.0'
p4243
(dp4244
I-1
(dp4245
S'1.0'
p4246
(dp4247
I0
(dp4248
S'1.0'
p4249
(dp4250
I2
S'1.0'
p4251
sssssssssssssssssssssssssI-1
(dp4252
S'0.25'
p4253
(dp4254
I0
S'0.0'
p4255
sI-1
(dp4256
S'0.5'
p4257
(dp4258
I-1
(dp4259
S'0.5'
p4260
(dp4261
I0
(dp4262
S'0.5'
p4263
(dp4264
I0
S'0.0'
p4265
sI-2
(dp4266
S'1.0'
p4267
(dp4268
I-1
(dp4269
S'1.0'
p4270
(dp4271
I-1
(dp4272
S'1.0'
p4273
(dp4274
I0
(dp4275
S'1.0'
p4276
(dp4277
I0
(dp4278
S'1.0'
p4279
(dp4280
I-2
(dp4281
S'1.0'
p4282
(dp4283
I1
(dp4284
S'1.0'
p4285
(dp4286
I0
(dp4287
S'1.0'
p4288
(dp4289
I0
(dp4290
S'1.0'
p4291
(dp4292
I0
(dp4293
S'1.0'
p4294
(dp4295
I1
(dp4296
S'1.0'
p4297
(dp4298
I0
(dp4299
S'1.0'
p4300
(dp4301
I-2
(dp4302
S'1.0'
p4303
(dp4304
I2
(dp4305
S'1.0'
p4306
(dp4307
I0
(dp4308
S'1.0'
p4309
(dp4310
I-1
(dp4311
S'1.0'
p4312
(dp4313
I0
(dp4314
S'1.0'
p4315
(dp4316
I0
(dp4317
S'1.0'
p4318
(dp4319
I2
S'1.0'
p4320
sssssssssssssssssssssssssssssssssssssI-1
(dp4321
S'1.0'
p4322
(dp4323
I0
(dp4324
S'1.0'
p4325
(dp4326
I-1
(dp4327
S'1.0'
p4328
(dp4329
I-2
(dp4330
S'1.0'
p4331
(dp4332
I0
(dp4333
S'1.0'
p4334
(dp4335
I1
(dp4336
S'1.0'
p4337
(dp4338
I0
(dp4339
S'1.0'
p4340
(dp4341
I-2
(dp4342
S'1.0'
p4343
(dp4344
I-1
(dp4345
S'1.0'
p4346
(dp4347
I1
(dp4348
S'1.0'
p4349
(dp4350
I-1
(dp4351
S'1.0'
p4352
(dp4353
I0
(dp4354
S'1.0'
p4355
(dp4356
I-1
(dp4357
S'1.0'
p4358
(dp4359
I0
(dp4360
S'1.0'
p4361
(dp4362
I1
(dp4363
S'1.0'
p4364
(dp4365
I1
S'1.0'
p4366
sssssssssssssssssssssssssssssssssssssssssI-1
(dp4367
S'0.4'
p4368
(dp4369
I0
(dp4370
S'1.0'
p4371
(dp4372
I-1
(dp4373
S'1.0'
p4374
(dp4375
I-1
(dp4376
S'1.0'
p4377
(dp4378
I2
S'1.0'
p4379
sssssssI1
S'1.0'
p4380
sI-1
(dp4381
S'0.0'
p4382
(dp4383
I0
S'0.0'
p4384
sI-2
(dp4385
S'0.0'
p4386
(dp4387
I-1
(dp4388
S'0.0'
p4389
(dp4390
I-1
(dp4391
S'0.0'
p4392
(dp4393
I-1
(dp4394
S'0.0'
p4395
(dp4396
I0
(dp4397
S'0.0'
p4398
(dp4399
I-1
(dp4400
S'0.0'
p4401
(dp4402
I-1
S'0.0'
p4403
sssssssssssssssssssI-1
(dp4404
S'0.22'
p4405
(dp4406
I0
(dp4407
S'0.33'
p4408
(dp4409
I0
(dp4410
S'0.2'
p4411
(dp4412
I0
S'0.0'
p4413
sI-1
(dp4414
S'1.0'
p4415
(dp4416
I0
(dp4417
S'1.0'
p4418
(dp4419
I1
(dp4420
S'1.0'
p4421
(dp4422
I2
(dp4423
S'1.0'
p4424
(dp4425
I0
(dp4426
S'1.0'
p4427
(dp4428
I-1
(dp4429
S'1.0'
p4430
(dp4431
I0
(dp4432
S'1.0'
p4433
(dp4434
I2
S'1.0'
p4435
sssssssssssssssssI1
S'0.5'
p4436
sI-2
(dp4437
S'0.0'
p4438
(dp4439
I-1
(dp4440
S'0.0'
p4441
(dp4442
I0
(dp4443
S'0.0'
p4444
(dp4445
I1
S'0.0'
p4446
sssssssI-1
(dp4447
S'0.5'
p4448
(dp4449
I0
(dp4450
S'1.0'
p4451
(dp4452
I-1
(dp4453
S'1.0'
p4454
(dp4455
I1
(dp4456
S'1.0'
p4457
(dp4458
I-1
(dp4459
S'1.0'
p4460
(dp4461
I-1
(dp4462
S'1.0'
p4463
(dp4464
I-2
(dp4465
S'1.0'
p4466
(dp4467
I0
(dp4468
S'1.0'
p4469
(dp4470
I-2
(dp4471
S'1.0'
p4472
(dp4473
I0
(dp4474
S'1.0'
p4475
(dp4476
I-2
(dp4477
S'1.0'
p4478
(dp4479
I0
(dp4480
S'1.0'
p4481
(dp4482
I-1
(dp4483
S'1.0'
p4484
(dp4485
I1
S'1.0'
p4486
sssssssssssssssssssssssssI-2
(dp4487
S'0.5'
p4488
(dp4489
I-1
S'0.5'
p4490
sssI-1
S'0.0'
p4491
sssssI-1
(dp4492
S'0.09'
p4493
(dp4494
I0
(dp4495
S'0.0'
p4496
(dp4497
I0
S'0.0'
p4498
sI-1
(dp4499
S'0.0'
p4500
(dp4501
I-1
(dp4502
S'0.0'
p4503
(dp4504
I1
(dp4505
S'0.0'
p4506
(dp4507
I0
(dp4508
S'0.0'
p4509
(dp4510
I1
(dp4511
S'0.0'
p4512
(dp4513
I0
(dp4514
S'0.0'
p4515
(dp4516
I-1
(dp4517
S'0.0'
p4518
(dp4519
I1
S'0.0'
p4520
sssssssssssssssI-2
(dp4521
S'0.0'
p4522
(dp4523
I-1
(dp4524
S'0.0'
p4525
(dp4526
I-1
S'0.0'
p4527
sssssssI-1
(dp4528
S'0.14'
p4529
(dp4530
I0
(dp4531
S'0.17'
p4532
(dp4533
I0
S'0.2'
p4534
sI1
(dp4535
S'0.0'
p4536
(dp4537
I0
(dp4538
S'0.0'
p4539
(dp4540
I-2
(dp4541
S'0.0'
p4542
(dp4543
I-1
(dp4544
S'0.0'
p4545
(dp4546
I-1
S'0.0'
p4547
sssssssssssI-1
(dp4548
S'0.0'
p4549
(dp4550
I0
(dp4551
S'0.0'
p4552
(dp4553
I-2
S'0.0'
p4554
sssssssssssssI-2
(dp4555
S'0.14'
p4556
(dp4557
I0
(dp4558
S'0.2'
p4559
(dp4560
I0
(dp4561
S'0.11'
p4562
(dp4563
I0
S'0.0'
p4564
sI1
(dp4565
S'1.0'
p4566
(dp4567
I-1
(dp4568
S'1.0'
p4569
(dp4570
I1
(dp4571
S'1.0'
p4572
(dp4573
I0
(dp4574
S'1.0'
p4575
(dp4576
I0
(dp4577
S'1.0'
p4578
(dp4579
I-1
(dp4580
S'1.0'
p4581
(dp4582
I-1
(dp4583
S'1.0'
p4584
(dp4585
I2
S'1.0'
p4586
sssssssssssssssssI1
(dp4587
S'0.4'
p4588
(dp4589
I0
S'0.33'
p4590
sI-1
(dp4591
S'0.5'
p4592
(dp4593
I-1
(dp4594
S'0.5'
p4595
(dp4596
I0
(dp4597
S'0.5'
p4598
(dp4599
I0
S'0.0'
p4600
sI1
(dp4601
S'1.0'
p4602
(dp4603
I0
(dp4604
S'1.0'
p4605
(dp4606
I-2
(dp4607
S'1.0'
p4608
(dp4609
I0
(dp4610
S'1.0'
p4611
(dp4612
I1
S'1.0'
p4613
sssssssssssssssssI-1
(dp4614
S'0.29'
p4615
(dp4616
I0
(dp4617
S'0.0'
p4618
(dp4619
I0
S'0.0'
p4620
sI-1
(dp4621
S'0.0'
p4622
(dp4623
I-1
(dp4624
S'0.0'
p4625
(dp4626
I-2
(dp4627
S'0.0'
p4628
(dp4629
I-2
(dp4630
S'0.0'
p4631
(dp4632
I-1
(dp4633
S'0.0'
p4634
(dp4635
I-1
(dp4636
S'0.0'
p4637
(dp4638
I0
(dp4639
S'0.0'
p4640
(dp4641
I1
(dp4642
S'0.0'
p4643
(dp4644
I0
(dp4645
S'0.0'
p4646
(dp4647
I-2
(dp4648
S'0.0'
p4649
(dp4650
I-1
(dp4651
S'0.0'
p4652
(dp4653
I0
(dp4654
S'0.0'
p4655
(dp4656
I-1
(dp4657
S'0.0'
p4658
(dp4659
I1
(dp4660
S'0.0'
p4661
(dp4662
I-1
S'0.0'
p4663
sssssssssssssssssssssssssssssssI1
(dp4664
S'0.0'
p4665
(dp4666
I-1
S'0.0'
p4667
sssI-1
(dp4668
S'0.0'
p4669
(dp4670
I-2
(dp4671
S'0.0'
p4672
(dp4673
I0
(dp4674
S'0.0'
p4675
(dp4676
I1
S'0.0'
p4677
sssssssI-2
(dp4678
S'1.0'
p4679
(dp4680
I0
(dp4681
S'1.0'
p4682
(dp4683
I-1
(dp4684
S'1.0'
p4685
(dp4686
I0
(dp4687
S'1.0'
p4688
(dp4689
I0
(dp4690
S'1.0'
p4691
(dp4692
I0
(dp4693
S'1.0'
p4694
(dp4695
I2
S'1.0'
p4696
sssssssssI-2
(dp4697
S'1.0'
p4698
(dp4699
I0
(dp4700
S'1.0'
p4701
(dp4702
I-1
(dp4703
S'1.0'
p4704
(dp4705
I1
S'1.0'
p4706
sssssssssssssI-2
(dp4707
S'0.0'
p4708
(dp4709
I0
S'0.0'
p4710
sI-1
(dp4711
S'0.0'
p4712
(dp4713
I0
S'0.0'
p4714
sI-1
(dp4715
S'0.0'
p4716
(dp4717
I-1
S'0.0'
p4718
sssssssssI-1
(dp4719
S'0.06'
p4720
(dp4721
I0
(dp4722
S'0.0'
p4723
(dp4724
I0
S'0.0'
p4725
sI1
(dp4726
S'0.0'
p4727
(dp4728
I0
(dp4729
S'0.0'
p4730
(dp4731
I-1
S'0.0'
p4732
sssssI-1
(dp4733
S'0.0'
p4734
(dp4735
I1
(dp4736
S'0.0'
p4737
(dp4738
I0
(dp4739
S'0.0'
p4740
(dp4741
I-2
S'0.0'
p4742
sssssssssI-1
(dp4743
S'0.08'
p4744
(dp4745
I0
(dp4746
S'0.0'
p4747
(dp4748
I0
S'0.0'
p4749
sI1
(dp4750
S'0.0'
p4751
(dp4752
I0
(dp4753
S'0.0'
p4754
(dp4755
I-1
S'0.0'
p4756
sssssI-1
(dp4757
S'0.0'
p4758
(dp4759
I-2
(dp4760
S'0.0'
p4761
(dp4762
I-1
(dp4763
S'0.0'
p4764
(dp4765
I-1
(dp4766
S'0.0'
p4767
(dp4768
I0
(dp4769
S'0.0'
p4770
(dp4771
I-2
(dp4772
S'0.0'
p4773
(dp4774
I-1
S'0.0'
p4775
sssssssssssssI-2
(dp4776
S'0.0'
p4777
(dp4778
I-1
S'0.0'
p4779
sssssI-1
(dp4780
S'0.25'
p4781
(dp4782
I0
S'0.0'
p4783
sI-1
(dp4784
S'0.33'
p4785
(dp4786
I0
S'0.0'
p4787
sI-1
(dp4788
S'1.0'
p4789
(dp4790
I0
(dp4791
S'1.0'
p4792
(dp4793
I0
(dp4794
S'1.0'
p4795
(dp4796
I-2
(dp4797
S'1.0'
p4798
(dp4799
I1
(dp4800
S'1.0'
p4801
(dp4802
I-1
(dp4803
S'1.0'
p4804
(dp4805
I-1
(dp4806
S'1.0'
p4807
(dp4808
I-1
(dp4809
S'1.0'
p4810
(dp4811
I0
(dp4812
S'1.0'
p4813
(dp4814
I-1
(dp4815
S'1.0'
p4816
(dp4817
I0
(dp4818
S'1.0'
p4819
(dp4820
I-2
(dp4821
S'1.0'
p4822
(dp4823
I1
S'1.0'
p4824
sssssssssssssssssssssssssssssssssssI-1
(dp4825
S'0.35'
p4826
(dp4827
I0
(dp4828
S'0.47'
p4829
(dp4830
I0
S'0.0'
p4831
sI2
S'1.0'
p4832
sI-1
(dp4833
S'0.8'
p4834
(dp4835
I2
S'1.0'
p4836
sI-2
(dp4837
S'0.67'
p4838
(dp4839
I0
(dp4840
S'1.0'
p4841
(dp4842
I1
(dp4843
S'1.0'
p4844
(dp4845
I-1
(dp4846
S'1.0'
p4847
(dp4848
I-1
(dp4849
S'1.0'
p4850
(dp4851
I1
(dp4852
S'1.0'
p4853
(dp4854
I-1
(dp4855
S'1.0'
p4856
(dp4857
I0
(dp4858
S'1.0'
p4859
(dp4860
I1
S'1.0'
p4861
sssssssssssssssI1
(dp4862
S'0.0'
p4863
(dp4864
I-1
(dp4865
S'0.0'
p4866
(dp4867
I-1
S'0.0'
p4868
sssssI-1
(dp4869
S'1.0'
p4870
(dp4871
I1
(dp4872
S'1.0'
p4873
(dp4874
I0
(dp4875
S'1.0'
p4876
(dp4877
I0
(dp4878
S'1.0'
p4879
(dp4880
I1
S'1.0'
p4881
sssssssssssI-1
(dp4882
S'1.0'
p4883
(dp4884
I-1
(dp4885
S'1.0'
p4886
(dp4887
I1
(dp4888
S'1.0'
p4889
(dp4890
I1
(dp4891
S'1.0'
p4892
(dp4893
I-1
(dp4894
S'1.0'
p4895
(dp4896
I0
(dp4897
S'1.0'
p4898
(dp4899
I0
(dp4900
S'1.0'
p4901
(dp4902
I0
(dp4903
S'1.0'
p4904
(dp4905
I2
S'1.0'
p4906
sssssssssssssssssssI-2
(dp4907
S'1.0'
p4908
(dp4909
I1
(dp4910
S'1.0'
p4911
(dp4912
I-1
(dp4913
S'1.0'
p4914
(dp4915
I-1
(dp4916
S'1.0'
p4917
(dp4918
I0
(dp4919
S'1.0'
p4920
(dp4921
I-2
(dp4922
S'1.0'
p4923
(dp4924
I0
(dp4925
S'1.0'
p4926
(dp4927
I0
(dp4928
S'1.0'
p4929
(dp4930
I-2
(dp4931
S'1.0'
p4932
(dp4933
I-1
(dp4934
S'1.0'
p4935
(dp4936
I-1
(dp4937
S'1.0'
p4938
(dp4939
I1
S'1.0'
p4940
sssssssssssssssssssssssssI1
(dp4941
S'0.5'
p4942
(dp4943
I0
(dp4944
S'0.75'
p4945
(dp4946
I-2
(dp4947
S'1.0'
p4948
(dp4949
I0
(dp4950
S'1.0'
p4951
(dp4952
I0
(dp4953
S'1.0'
p4954
(dp4955
I2
S'1.0'
p4956
sssI-2
(dp4957
S'1.0'
p4958
(dp4959
I0
(dp4960
S'1.0'
p4961
(dp4962
I-1
(dp4963
S'1.0'
p4964
(dp4965
I1
S'1.0'
p4966
sssssssI-1
(dp4967
S'1.0'
p4968
(dp4969
I-1
(dp4970
S'1.0'
p4971
(dp4972
I1
(dp4973
S'1.0'
p4974
(dp4975
I-1
(dp4976
S'1.0'
p4977
(dp4978
I0
(dp4979
S'1.0'
p4980
(dp4981
I1
(dp4982
S'1.0'
p4983
(dp4984
I0
(dp4985
S'1.0'
p4986
(dp4987
I-2
(dp4988
S'1.0'
p4989
(dp4990
I-1
(dp4991
S'1.0'
p4992
(dp4993
I-1
(dp4994
S'1.0'
p4995
(dp4996
I0
(dp4997
S'1.0'
p4998
(dp4999
I1
S'1.0'
p5000
sssssssssssssssssssssssssssI-1
(dp5001
S'0.0'
p5002
(dp5003
I-2
S'0.0'
p5004
sssssI-1
(dp5005
S'0.0'
p5006
(dp5007
I-1
(dp5008
S'0.0'
p5009
(dp5010
I-1
(dp5011
S'0.0'
p5012
(dp5013
I-1
(dp5014
S'0.0'
p5015
(dp5016
I0
(dp5017
S'0.0'
p5018
(dp5019
I0
S'0.0'
p5020
sI-1
(dp5021
S'0.0'
p5022
(dp5023
I-2
(dp5024
S'0.0'
p5025
(dp5026
I0
(dp5027
S'0.0'
p5028
(dp5029
I1
(dp5030
S'0.0'
p5031
(dp5032
I0
(dp5033
S'0.0'
p5034
(dp5035
I-2
(dp5036
S'0.0'
p5037
(dp5038
I-1
(dp5039
S'0.0'
p5040
(dp5041
I0
(dp5042
S'0.0'
p5043
(dp5044
I-2
(dp5045
S'0.0'
p5046
(dp5047
I0
(dp5048
S'0.0'
p5049
(dp5050
I-2
(dp5051
S'0.0'
p5052
(dp5053
I-1
(dp5054
S'0.0'
p5055
(dp5056
I0
(dp5057
S'0.0'
p5058
(dp5059
I-1
(dp5060
S'0.0'
p5061
(dp5062
I1
S'0.0'
p5063
sssssssssssssssssssssssssssssssssssssssssI-2
(dp5064
S'0.24'
p5065
(dp5066
I0
(dp5067
S'0.18'
p5068
(dp5069
I0
(dp5070
S'0.0'
p5071
(dp5072
I0
S'0.0'
p5073
sI-2
(dp5074
S'0.0'
p5075
(dp5076
I-1
(dp5077
S'0.0'
p5078
(dp5079
I-2
(dp5080
S'0.0'
p5081
(dp5082
I0
(dp5083
S'0.0'
p5084
(dp5085
I1
S'0.0'
p5086
sssssssssssI1
(dp5087
S'0.0'
p5088
(dp5089
I-1
(dp5090
S'0.0'
p5091
(dp5092
I0
(dp5093
S'0.0'
p5094
(dp5095
I-1
S'0.0'
p5096
sssssssI-1
(dp5097
S'1.0'
p5098
(dp5099
I-2
(dp5100
S'1.0'
p5101
(dp5102
I-1
(dp5103
S'1.0'
p5104
(dp5105
I0
(dp5106
S'1.0'
p5107
(dp5108
I-1
(dp5109
S'1.0'
p5110
(dp5111
I0
(dp5112
S'1.0'
p5113
(dp5114
I2
S'1.0'
p5115
sssI-1
(dp5116
S'1.0'
p5117
(dp5118
I-2
(dp5119
S'1.0'
p5120
(dp5121
I0
(dp5122
S'1.0'
p5123
(dp5124
I1
S'1.0'
p5125
sssssssssssssssssI-2
(dp5126
S'0.0'
p5127
(dp5128
I0
S'0.0'
p5129
sI-1
(dp5130
S'0.0'
p5131
(dp5132
I-1
(dp5133
S'0.0'
p5134
(dp5135
I0
(dp5136
S'0.0'
p5137
(dp5138
I-1
(dp5139
S'0.0'
p5140
(dp5141
I-2
(dp5142
S'0.0'
p5143
(dp5144
I0
(dp5145
S'0.0'
p5146
(dp5147
I-2
(dp5148
S'0.0'
p5149
(dp5150
I0
(dp5151
S'0.0'
p5152
(dp5153
I-1
(dp5154
S'0.0'
p5155
(dp5156
I1
S'0.0'
p5157
sssssssssssssssssssssssI-1
(dp5158
S'0.3'
p5159
(dp5160
I0
(dp5161
S'0.0'
p5162
(dp5163
I1
(dp5164
S'0.0'
p5165
(dp5166
I-1
(dp5167
S'0.0'
p5168
(dp5169
I-1
(dp5170
S'0.0'
p5171
(dp5172
I-1
(dp5173
S'0.0'
p5174
(dp5175
I-1
(dp5176
S'0.0'
p5177
(dp5178
I-1
(dp5179
S'0.0'
p5180
(dp5181
I-1
S'0.0'
p5182
sssssssssssssI-2
(dp5183
S'0.0'
p5184
(dp5185
I-1
(dp5186
S'0.0'
p5187
(dp5188
I-1
S'0.0'
p5189
sssssssI-1
(dp5190
S'0.38'
p5191
(dp5192
I0
(dp5193
S'0.5'
p5194
(dp5195
I0
S'0.33'
p5196
sI1
(dp5197
S'0.0'
p5198
(dp5199
I-1
S'0.0'
p5200
sssI-2
(dp5201
S'1.0'
p5202
(dp5203
I0
(dp5204
S'1.0'
p5205
(dp5206
I-2
(dp5207
S'1.0'
p5208
(dp5209
I-1
(dp5210
S'1.0'
p5211
(dp5212
I0
(dp5213
S'1.0'
p5214
(dp5215
I1
(dp5216
S'1.0'
p5217
(dp5218
I-1
(dp5219
S'1.0'
p5220
(dp5221
I0
(dp5222
S'1.0'
p5223
(dp5224
I1
(dp5225
S'1.0'
p5226
(dp5227
I0
(dp5228
S'1.0'
p5229
(dp5230
I0
(dp5231
S'1.0'
p5232
(dp5233
I2
(dp5234
S'1.0'
p5235
(dp5236
I0
(dp5237
S'1.0'
p5238
(dp5239
I1
(dp5240
S'1.0'
p5241
(dp5242
I-1
(dp5243
S'1.0'
p5244
(dp5245
I-1
(dp5246
S'1.0'
p5247
(dp5248
I-1
(dp5249
S'1.0'
p5250
(dp5251
I-1
(dp5252
S'1.0'
p5253
(dp5254
I-1
(dp5255
S'1.0'
p5256
(dp5257
I0
(dp5258
S'1.0'
p5259
(dp5260
I1
S'1.0'
p5261
sssssssssssssssssssssssssssssssssssssssI-1
(dp5262
S'1.0'
p5263
(dp5264
I-1
(dp5265
S'1.0'
p5266
(dp5267
I-1
(dp5268
S'1.0'
p5269
(dp5270
I0
(dp5271
S'1.0'
p5272
(dp5273
I0
(dp5274
S'1.0'
p5275
(dp5276
I2
S'1.0'
p5277
sssssssssssssssI-1
(dp5278
S'0.0'
p5279
(dp5280
I-1
S'0.0'
p5281
sssssssssI-1
(dp5282
S'0.32'
p5283
(dp5284
I0
(dp5285
S'0.33'
p5286
(dp5287
I0
(dp5288
S'0.33'
p5289
(dp5290
I0
S'0.0'
p5291
sI-1
(dp5292
S'1.0'
p5293
(dp5294
I0
(dp5295
S'1.0'
p5296
(dp5297
I1
S'1.0'
p5298
sssI2
S'1.0'
p5299
sssssssI1
(dp5300
S'0.5'
p5301
(dp5302
I0
S'0.5'
p5303
sI-1
(dp5304
S'0.5'
p5305
(dp5306
I0
(dp5307
S'0.33'
p5308
(dp5309
I0
(dp5310
S'0.5'
p5311
(dp5312
I0
(dp5313
S'0.5'
p5314
(dp5315
I0
S'0.0'
p5316
sI2
(dp5317
S'1.0'
p5318
(dp5319
I0
(dp5320
S'1.0'
p5321
(dp5322
I0
(dp5323
S'1.0'
p5324
(dp5325
I-2
(dp5326
S'1.0'
p5327
(dp5328
I1
(dp5329
S'1.0'
p5330
(dp5331
I1
S'1.0'
p5332
sssssssssssssssI1
S'0.0'
p5333
sssI-1
(dp5334
S'0.67'
p5335
(dp5336
I0
(dp5337
S'0.5'
p5338
(dp5339
I1
S'1.0'
p5340
sI-2
(dp5341
S'0.0'
p5342
(dp5343
I-1
S'0.0'
p5344
sssssI-1
(dp5345
S'1.0'
p5346
(dp5347
I0
(dp5348
S'1.0'
p5349
(dp5350
I1
(dp5351
S'1.0'
p5352
(dp5353
I-1
(dp5354
S'1.0'
p5355
(dp5356
I0
(dp5357
S'1.0'
p5358
(dp5359
I-2
(dp5360
S'1.0'
p5361
(dp5362
I0
(dp5363
S'1.0'
p5364
(dp5365
I1
(dp5366
S'1.0'
p5367
(dp5368
I-1
(dp5369
S'1.0'
p5370
(dp5371
I-1
(dp5372
S'1.0'
p5373
(dp5374
I-1
(dp5375
S'1.0'
p5376
(dp5377
I-1
(dp5378
S'1.0'
p5379
(dp5380
I0
(dp5381
S'1.0'
p5382
(dp5383
I-1
(dp5384
S'1.0'
p5385
(dp5386
I-1
(dp5387
S'1.0'
p5388
(dp5389
I0
(dp5390
S'1.0'
p5391
(dp5392
I2
S'1.0'
p5393
sssssssssssssssssssssssssssssssssssssssI-1
S'0.0'
p5394
sI-2
(dp5395
S'0.0'
p5396
(dp5397
I0
(dp5398
S'0.0'
p5399
(dp5400
I-2
(dp5401
S'0.0'
p5402
(dp5403
I0
(dp5404
S'0.0'
p5405
(dp5406
I-1
(dp5407
S'0.0'
p5408
(dp5409
I-2
(dp5410
S'0.0'
p5411
(dp5412
I0
(dp5413
S'0.0'
p5414
(dp5415
I-2
(dp5416
S'0.0'
p5417
(dp5418
I0
(dp5419
S'0.0'
p5420
(dp5421
I1
S'0.0'
p5422
sssssssssssssssssI-1
(dp5423
S'0.0'
p5424
(dp5425
I0
(dp5426
S'0.0'
p5427
(dp5428
I0
(dp5429
S'0.0'
p5430
(dp5431
I-2
(dp5432
S'0.0'
p5433
(dp5434
I-1
(dp5435
S'0.0'
p5436
(dp5437
I1
(dp5438
S'0.0'
p5439
(dp5440
I-1
(dp5441
S'0.0'
p5442
(dp5443
I0
(dp5444
S'0.0'
p5445
(dp5446
I-1
(dp5447
S'0.0'
p5448
(dp5449
I-1
(dp5450
S'0.0'
p5451
(dp5452
I0
(dp5453
S'0.0'
p5454
(dp5455
I1
(dp5456
S'0.0'
p5457
(dp5458
I-2
(dp5459
S'0.0'
p5460
(dp5461
I-1
S'0.0'
p5462
sssssssssssssssssssssssssssssssssssssI-1
(dp5463
S'0.09'
p5464
(dp5465
I0
(dp5466
S'0.07'
p5467
(dp5468
I0
S'0.01'
p5469
sI1
(dp5470
S'0.23'
p5471
(dp5472
I0
(dp5473
S'0.2'
p5474
(dp5475
I0
(dp5476
S'0.07'
p5477
(dp5478
I0
S'0.0'
p5479
sI1
(dp5480
S'0.5'
p5481
(dp5482
I0
(dp5483
S'0.0'
p5484
(dp5485
I-2
(dp5486
S'0.0'
p5487
(dp5488
I1
S'0.0'
p5489
sssssI-2
(dp5490
S'1.0'
p5491
(dp5492
I-1
(dp5493
S'1.0'
p5494
(dp5495
I0
(dp5496
S'1.0'
p5497
(dp5498
I-1
(dp5499
S'1.0'
p5500
(dp5501
I1
(dp5502
S'1.0'
p5503
(dp5504
I-1
(dp5505
S'1.0'
p5506
(dp5507
I0
(dp5508
S'1.0'
p5509
(dp5510
I1
(dp5511
S'1.0'
p5512
(dp5513
I-1
(dp5514
S'1.0'
p5515
(dp5516
I-1
(dp5517
S'1.0'
p5518
(dp5519
I-1
(dp5520
S'1.0'
p5521
(dp5522
I0
(dp5523
S'1.0'
p5524
(dp5525
I0
(dp5526
S'1.0'
p5527
(dp5528
I0
(dp5529
S'1.0'
p5530
(dp5531
I-1
(dp5532
S'1.0'
p5533
(dp5534
I2
S'1.0'
p5535
sssssssssssssssssssssssssssssssssI-1
(dp5536
S'0.0'
p5537
(dp5538
I0
(dp5539
S'0.0'
p5540
(dp5541
I-2
S'0.0'
p5542
sssssssI1
(dp5543
S'1.0'
p5544
(dp5545
I0
(dp5546
S'1.0'
p5547
(dp5548
I0
(dp5549
S'1.0'
p5550
(dp5551
I2
S'1.0'
p5552
sssI1
S'1.0'
p5553
sssI-1
(dp5554
S'1.0'
p5555
(dp5556
I0
(dp5557
S'1.0'
p5558
(dp5559
I-1
(dp5560
S'1.0'
p5561
(dp5562
I-2
(dp5563
S'1.0'
p5564
(dp5565
I0
(dp5566
S'1.0'
p5567
(dp5568
I-1
(dp5569
S'1.0'
p5570
(dp5571
I-1
(dp5572
S'1.0'
p5573
(dp5574
I-1
(dp5575
S'1.0'
p5576
(dp5577
I0
(dp5578
S'1.0'
p5579
(dp5580
I-2
(dp5581
S'1.0'
p5582
(dp5583
I-1
(dp5584
S'1.0'
p5585
(dp5586
I0
(dp5587
S'1.0'
p5588
(dp5589
I-2
(dp5590
S'1.0'
p5591
(dp5592
I1
(dp5593
S'1.0'
p5594
(dp5595
I-1
(dp5596
S'1.0'
p5597
(dp5598
I0
(dp5599
S'1.0'
p5600
(dp5601
I-1
(dp5602
S'1.0'
p5603
(dp5604
I-1
(dp5605
S'1.0'
p5606
(dp5607
I-1
(dp5608
S'1.0'
p5609
(dp5610
I1
S'1.0'
p5611
sssssssssssssssssssssssssssssssssssssssssI-2
(dp5612
S'0.0'
p5613
(dp5614
I0
S'0.0'
p5615
sI-1
(dp5616
S'0.0'
p5617
(dp5618
I0
(dp5619
S'0.0'
p5620
(dp5621
I1
S'0.0'
p5622
sssssssI-1
(dp5623
S'0.0'
p5624
(dp5625
I-2
S'0.0'
p5626
sssssI-1
(dp5627
S'0.33'
p5628
(dp5629
I0
(dp5630
S'0.0'
p5631
(dp5632
I1
S'0.0'
p5633
sI-2
S'0.0'
p5634
sssI-1
(dp5635
S'0.5'
p5636
(dp5637
I0
(dp5638
S'0.67'
p5639
(dp5640
I1
(dp5641
S'1.0'
p5642
(dp5643
I-1
(dp5644
S'1.0'
p5645
(dp5646
I0
(dp5647
S'1.0'
p5648
(dp5649
I-1
(dp5650
S'1.0'
p5651
(dp5652
I1
S'1.0'
p5653
sssssssssI-1
S'0.0'
p5654
sI-2
(dp5655
S'1.0'
p5656
(dp5657
I0
(dp5658
S'1.0'
p5659
(dp5660
I-2
(dp5661
S'1.0'
p5662
(dp5663
I0
(dp5664
S'1.0'
p5665
(dp5666
I-2
(dp5667
S'1.0'
p5668
(dp5669
I0
(dp5670
S'1.0'
p5671
(dp5672
I0
(dp5673
S'1.0'
p5674
(dp5675
I2
S'1.0'
p5676
sssssssssssssssssI-1
(dp5677
S'0.0'
p5678
(dp5679
I-1
(dp5680
S'0.0'
p5681
(dp5682
I0
(dp5683
S'0.0'
p5684
(dp5685
I-2
(dp5686
S'0.0'
p5687
(dp5688
I0
(dp5689
S'0.0'
p5690
(dp5691
I-1
S'0.0'
p5692
sssssssssssssssssI-2
(dp5693
S'0.27'
p5694
(dp5695
I0
(dp5696
S'0.25'
p5697
(dp5698
I0
S'0.0'
p5699
sI1
(dp5700
S'0.33'
p5701
(dp5702
I0
(dp5703
S'0.33'
p5704
(dp5705
I0
S'0.0'
p5706
sI1
(dp5707
S'0.0'
p5708
(dp5709
I0
(dp5710
S'0.0'
p5711
(dp5712
I-1
(dp5713
S'0.0'
p5714
(dp5715
I-2
(dp5716
S'0.0'
p5717
(dp5718
I0
(dp5719
S'0.0'
p5720
(dp5721
I1
(dp5722
S'0.0'
p5723
(dp5724
I0
(dp5725
S'0.0'
p5726
(dp5727
I-1
(dp5728
S'0.0'
p5729
(dp5730
I-2
S'0.0'
p5731
sssssssssssssssssI-2
(dp5732
S'1.0'
p5733
(dp5734
I0
(dp5735
S'1.0'
p5736
(dp5737
I0
(dp5738
S'1.0'
p5739
(dp5740
I1
(dp5741
S'1.0'
p5742
(dp5743
I1
S'1.0'
p5744
sssssssssssssI-2
(dp5745
S'0.63'
p5746
(dp5747
I0
(dp5748
S'0.5'
p5749
(dp5750
I0
(dp5751
S'0.67'
p5752
(dp5753
I0
(dp5754
S'1.0'
p5755
(dp5756
I2
S'1.0'
p5757
sssI1
S'0.5'
p5758
sssI-2
(dp5759
S'0.0'
p5760
(dp5761
I-1
(dp5762
S'0.0'
p5763
(dp5764
I-1
(dp5765
S'0.0'
p5766
(dp5767
I-1
(dp5768
S'0.0'
p5769
(dp5770
I-1
(dp5771
S'0.0'
p5772
(dp5773
I-1
(dp5774
S'0.0'
p5775
(dp5776
I-1
(dp5777
S'0.0'
p5778
(dp5779
I-1
S'0.0'
p5780
sssssssssssssssssI-1
(dp5781
S'0.75'
p5782
(dp5783
I0
(dp5784
S'1.0'
p5785
(dp5786
I0
(dp5787
S'1.0'
p5788
(dp5789
I1
(dp5790
S'1.0'
p5791
(dp5792
I0
S'1.0'
p5793
sI-2
(dp5794
S'1.0'
p5795
(dp5796
I-1
(dp5797
S'1.0'
p5798
(dp5799
I-1
(dp5800
S'1.0'
p5801
(dp5802
I-1
(dp5803
S'1.0'
p5804
(dp5805
I-1
(dp5806
S'1.0'
p5807
(dp5808
I-1
(dp5809
S'1.0'
p5810
(dp5811
I0
(dp5812
S'1.0'
p5813
(dp5814
I1
S'1.0'
p5815
sssssssssssssssssssssI-1
S'0.5'
p5816
sssssI-1
(dp5817
S'0.0'
p5818
(dp5819
I-1
(dp5820
S'0.0'
p5821
(dp5822
I1
(dp5823
S'0.0'
p5824
(dp5825
I0
(dp5826
S'0.0'
p5827
(dp5828
I-2
(dp5829
S'0.0'
p5830
(dp5831
I-1
S'0.0'
p5832
sssssssI-1
(dp5833
S'0.0'
p5834
(dp5835
I-2
(dp5836
S'0.0'
p5837
(dp5838
I-1
(dp5839
S'0.0'
p5840
(dp5841
I-1
S'0.0'
p5842
sssssssssssssI-1
(dp5843
S'0.29'
p5844
(dp5845
I0
(dp5846
S'0.31'
p5847
(dp5848
I0
S'0.0'
p5849
sI-1
(dp5850
S'0.5'
p5851
(dp5852
I0
(dp5853
S'0.67'
p5854
(dp5855
I1
(dp5856
S'0.5'
p5857
(dp5858
I-1
(dp5859
S'0.0'
p5860
(dp5861
I1
(dp5862
S'0.0'
p5863
(dp5864
I-1
(dp5865
S'0.0'
p5866
(dp5867
I-1
S'0.0'
p5868
sssssssI-2
(dp5869
S'1.0'
p5870
(dp5871
I0
(dp5872
S'1.0'
p5873
(dp5874
I-2
(dp5875
S'1.0'
p5876
(dp5877
I-1
(dp5878
S'1.0'
p5879
(dp5880
I-1
(dp5881
S'1.0'
p5882
(dp5883
I0
(dp5884
S'1.0'
p5885
(dp5886
I0
(dp5887
S'1.0'
p5888
(dp5889
I-1
(dp5890
S'1.0'
p5891
(dp5892
I-1
(dp5893
S'1.0'
p5894
(dp5895
I-1
(dp5896
S'1.0'
p5897
(dp5898
I-1
(dp5899
S'1.0'
p5900
(dp5901
I1
(dp5902
S'1.0'
p5903
(dp5904
I0
(dp5905
S'1.0'
p5906
(dp5907
I-1
(dp5908
S'1.0'
p5909
(dp5910
I1
S'1.0'
p5911
sssssssssssssssssssssssssssssssI2
S'1.0'
p5912
sssI1
S'0.5'
p5913
sI-1
(dp5914
S'0.0'
p5915
(dp5916
I-1
(dp5917
S'0.0'
p5918
(dp5919
I0
(dp5920
S'0.0'
p5921
(dp5922
I-1
(dp5923
S'0.0'
p5924
(dp5925
I1
(dp5926
S'0.0'
p5927
(dp5928
I0
(dp5929
S'0.0'
p5930
(dp5931
I2
(dp5932
S'0.0'
p5933
(dp5934
I0
(dp5935
S'0.0'
p5936
(dp5937
I-1
(dp5938
S'0.0'
p5939
(dp5940
I0
(dp5941
S'0.0'
p5942
(dp5943
I-1
(dp5944
S'0.0'
p5945
(dp5946
I-2
(dp5947
S'0.0'
p5948
(dp5949
I-2
(dp5950
S'0.0'
p5951
(dp5952
I-1
S'0.0'
p5953
sssssssssssssssssssssssssssssI-2
(dp5954
S'0.33'
p5955
(dp5956
I0
S'0.0'
p5957
sI-1
(dp5958
S'1.0'
p5959
(dp5960
I-1
(dp5961
S'1.0'
p5962
(dp5963
I0
(dp5964
S'1.0'
p5965
(dp5966
I0
(dp5967
S'1.0'
p5968
(dp5969
I1
(dp5970
S'1.0'
p5971
(dp5972
I-1
(dp5973
S'1.0'
p5974
(dp5975
I-1
(dp5976
S'1.0'
p5977
(dp5978
I-1
(dp5979
S'1.0'
p5980
(dp5981
I0
(dp5982
S'1.0'
p5983
(dp5984
I2
S'1.0'
p5985
sssssssssssssssssssssssI-1
(dp5986
S'0.27'
p5987
(dp5988
I0
(dp5989
S'0.25'
p5990
(dp5991
I0
(dp5992
S'0.29'
p5993
(dp5994
I0
S'0.0'
p5995
sI-1
(dp5996
S'1.0'
p5997
(dp5998
I1
(dp5999
S'1.0'
p6000
(dp6001
I-1
(dp6002
S'1.0'
p6003
(dp6004
I-1
(dp6005
S'1.0'
p6006
(dp6007
I1
(dp6008
S'1.0'
p6009
(dp6010
I0
(dp6011
S'1.0'
p6012
(dp6013
I-2
(dp6014
S'1.0'
p6015
(dp6016
I0
(dp6017
S'1.0'
p6018
(dp6019
I-1
(dp6020
S'1.0'
p6021
(dp6022
I-2
(dp6023
S'1.0'
p6024
(dp6025
I-1
(dp6026
S'1.0'
p6027
(dp6028
I-1
(dp6029
S'1.0'
p6030
(dp6031
I-1
(dp6032
S'1.0'
p6033
(dp6034
I0
(dp6035
S'1.0'
p6036
(dp6037
I0
(dp6038
S'1.0'
p6039
(dp6040
I2
S'1.0'
p6041
sssssssssssssssssssssssssssssssI-2
(dp6042
S'0.5'
p6043
(dp6044
I1
(dp6045
S'0.0'
p6046
(dp6047
I-1
(dp6048
S'0.0'
p6049
(dp6050
I0
(dp6051
S'0.0'
p6052
(dp6053
I0
(dp6054
S'0.0'
p6055
(dp6056
I2
(dp6057
S'0.0'
p6058
(dp6059
I-1
(dp6060
S'0.0'
p6061
(dp6062
I0
(dp6063
S'0.0'
p6064
(dp6065
I1
(dp6066
S'0.0'
p6067
(dp6068
I0
(dp6069
S'0.0'
p6070
(dp6071
I-2
(dp6072
S'0.0'
p6073
(dp6074
I0
(dp6075
S'0.0'
p6076
(dp6077
I1
(dp6078
S'0.0'
p6079
(dp6080
I-1
(dp6081
S'0.0'
p6082
(dp6083
I-1
(dp6084
S'0.0'
p6085
(dp6086
I-1
(dp6087
S'0.0'
p6088
(dp6089
I-1
(dp6090
S'0.0'
p6091
(dp6092
I-1
(dp6093
S'0.0'
p6094
(dp6095
I0
(dp6096
S'0.0'
p6097
(dp6098
I1
(dp6099
S'0.0'
p6100
(dp6101
I-1
(dp6102
S'0.0'
p6103
(dp6104
I-1
(dp6105
S'0.0'
p6106
(dp6107
I0
(dp6108
S'0.0'
p6109
(dp6110
I-1
(dp6111
S'0.0'
p6112
(dp6113
I-2
(dp6114
S'0.0'
p6115
(dp6116
I-1
(dp6117
S'0.0'
p6118
(dp6119
I-1
(dp6120
S'0.0'
p6121
(dp6122
I-1
(dp6123
S'0.0'
p6124
(dp6125
I-1
S'0.0'
p6126
sssssssssssssssssssssssssssssssssssssssssssssssssssssssI-2
(dp6127
S'1.0'
p6128
(dp6129
I0
(dp6130
S'1.0'
p6131
(dp6132
I1
(dp6133
S'1.0'
p6134
(dp6135
I0
(dp6136
S'1.0'
p6137
(dp6138
I-1
(dp6139
S'1.0'
p6140
(dp6141
I1
(dp6142
S'1.0'
p6143
(dp6144
I-1
(dp6145
S'1.0'
p6146
(dp6147
I0
(dp6148
S'1.0'
p6149
(dp6150
I1
S'1.0'
p6151
sssssssssssssssssssssI-2
(dp6152
S'0.0'
p6153
(dp6154
I-1
(dp6155
S'0.0'
p6156
(dp6157
I-1
(dp6158
S'0.0'
p6159
(dp6160
I0
(dp6161
S'0.0'
p6162
(dp6163
I-2
(dp6164
S'0.0'
p6165
(dp6166
I0
(dp6167
S'0.0'
p6168
(dp6169
I-1
S'0.0'
p6170
sssssssssssssssI-1
(dp6171
S'0.33'
p6172
(dp6173
I-1
(dp6174
S'0.33'
p6175
(dp6176
I0
S'0.0'
p6177
sI-1
(dp6178
S'0.5'
p6179
(dp6180
I0
(dp6181
S'0.5'
p6182
(dp6183
I1
(dp6184
S'1.0'
p6185
(dp6186
I-1
(dp6187
S'1.0'
p6188
(dp6189
I0
(dp6190
S'1.0'
p6191
(dp6192
I-1
(dp6193
S'1.0'
p6194
(dp6195
I1
S'1.0'
p6196
sssssssssI-1
(dp6197
S'0.0'
p6198
(dp6199
I-2
(dp6200
S'0.0'
p6201
(dp6202
I0
(dp6203
S'0.0'
p6204
(dp6205
I0
(dp6206
S'0.0'
p6207
(dp6208
I-1
(dp6209
S'0.0'
p6210
(dp6211
I-1
(dp6212
S'0.0'
p6213
(dp6214
I1
(dp6215
S'0.0'
p6216
(dp6217
I-2
(dp6218
S'0.0'
p6219
(dp6220
I0
(dp6221
S'0.0'
p6222
(dp6223
I-1
(dp6224
S'0.0'
p6225
(dp6226
I-1
S'0.0'
p6227
sssssssssssssssssssssssssssssssssssI-1
(dp6228
S'0.0'
p6229
(dp6230
I0
(dp6231
S'0.0'
p6232
(dp6233
I0
(dp6234
S'0.0'
p6235
(dp6236
I0
S'0.0'
p6237
sI-1
(dp6238
S'0.0'
p6239
(dp6240
I2
(dp6241
S'0.0'
p6242
(dp6243
I1
(dp6244
S'0.0'
p6245
(dp6246
I-1
(dp6247
S'0.0'
p6248
(dp6249
I0
(dp6250
S'0.0'
p6251
(dp6252
I-1
(dp6253
S'0.0'
p6254
(dp6255
I1
(dp6256
S'0.0'
p6257
(dp6258
I0
(dp6259
S'0.0'
p6260
(dp6261
I-1
(dp6262
S'0.0'
p6263
(dp6264
I-1
(dp6265
S'0.0'
p6266
(dp6267
I-2
(dp6268
S'0.0'
p6269
(dp6270
I-1
(dp6271
S'0.0'
p6272
(dp6273
I-1
(dp6274
S'0.0'
p6275
(dp6276
I-1
(dp6277
S'0.0'
p6278
(dp6279
I0
(dp6280
S'0.0'
p6281
(dp6282
I-2
S'0.0'
p6283
sssssssssssssssssssssssssssssssssI2
(dp6284
S'0.0'
p6285
(dp6286
I-1
(dp6287
S'0.0'
p6288
(dp6289
I-1
(dp6290
S'0.0'
p6291
(dp6292
I-1
(dp6293
S'0.0'
p6294
(dp6295
I-1
(dp6296
S'0.0'
p6297
(dp6298
I0
(dp6299
S'0.0'
p6300
(dp6301
I-1
S'0.0'
p6302
sssssssssssssssI1
(dp6303
S'0.0'
p6304
(dp6305
I0
(dp6306
S'0.0'
p6307
(dp6308
I0
(dp6309
S'0.0'
p6310
(dp6311
I-1
(dp6312
S'0.0'
p6313
(dp6314
I-1
S'0.0'
p6315
sssssssssI-2
S'0.0'
p6316
sI-1
(dp6317
S'0.0'
p6318
(dp6319
I0
S'0.0'
p6320
sI-1
(dp6321
S'0.0'
p6322
(dp6323
I1
(dp6324
S'0.0'
p6325
(dp6326
I-1
(dp6327
S'0.0'
p6328
(dp6329
I-1
S'0.0'
p6330
sssssssssssssI-1
(dp6331
S'0.11'
p6332
(dp6333
I0
(dp6334
S'0.11'
p6335
(dp6336
I0
S'0.04'
p6337
sI1
(dp6338
S'0.24'
p6339
(dp6340
I0
(dp6341
S'0.22'
p6342
(dp6343
I0
S'0.2'
p6344
sI1
(dp6345
S'0.5'
p6346
(dp6347
I0
S'0.0'
p6348
sI-1
(dp6349
S'1.0'
p6350
(dp6351
I-1
(dp6352
S'1.0'
p6353
(dp6354
I0
(dp6355
S'1.0'
p6356
(dp6357
I1
S'1.0'
p6358
sssssssssI-1
(dp6359
S'0.0'
p6360
(dp6361
I1
(dp6362
S'0.0'
p6363
(dp6364
I-1
(dp6365
S'0.0'
p6366
(dp6367
I-1
(dp6368
S'0.0'
p6369
(dp6370
I-1
S'0.0'
p6371
sssssssssI-2
(dp6372
S'0.0'
p6373
(dp6374
I-1
(dp6375
S'0.0'
p6376
(dp6377
I-1
(dp6378
S'0.0'
p6379
(dp6380
I-1
(dp6381
S'0.0'
p6382
(dp6383
I-1
(dp6384
S'0.0'
p6385
(dp6386
I-1
S'0.0'
p6387
sssssssssssssI-1
(dp6388
S'0.25'
p6389
(dp6390
I0
(dp6391
S'0.15'
p6392
(dp6393
I0
(dp6394
S'0.2'
p6395
(dp6396
I0
S'0.0'
p6397
sI2
(dp6398
S'0.0'
p6399
(dp6400
I0
(dp6401
S'0.0'
p6402
(dp6403
I-2
(dp6404
S'0.0'
p6405
(dp6406
I-1
(dp6407
S'0.0'
p6408
(dp6409
I0
(dp6410
S'0.0'
p6411
(dp6412
I0
(dp6413
S'0.0'
p6414
(dp6415
I-1
S'0.0'
p6416
sssssssssssssI-1
(dp6417
S'1.0'
p6418
(dp6419
I2
S'1.0'
p6420
sssssI1
(dp6421
S'0.0'
p6422
(dp6423
I0
(dp6424
S'0.0'
p6425
(dp6426
I0
S'0.0'
p6427
sI-1
(dp6428
S'0.0'
p6429
(dp6430
I-1
(dp6431
S'0.0'
p6432
(dp6433
I-2
(dp6434
S'0.0'
p6435
(dp6436
I-1
S'0.0'
p6437
sssssssssI-1
S'0.0'
p6438
sssI-2
(dp6439
S'0.33'
p6440
(dp6441
I-1
(dp6442
S'0.33'
p6443
(dp6444
I0
(dp6445
S'1.0'
p6446
(dp6447
I0
(dp6448
S'1.0'
p6449
(dp6450
I0
(dp6451
S'1.0'
p6452
(dp6453
I2
S'1.0'
p6454
sssssssI-1
(dp6455
S'0.0'
p6456
(dp6457
I0
(dp6458
S'0.0'
p6459
(dp6460
I1
(dp6461
S'0.0'
p6462
(dp6463
I-1
(dp6464
S'0.0'
p6465
(dp6466
I0
(dp6467
S'0.0'
p6468
(dp6469
I-2
(dp6470
S'0.0'
p6471
(dp6472
I0
(dp6473
S'0.0'
p6474
(dp6475
I-1
(dp6476
S'0.0'
p6477
(dp6478
I1
(dp6479
S'0.0'
p6480
(dp6481
I-1
(dp6482
S'0.0'
p6483
(dp6484
I-1
(dp6485
S'0.0'
p6486
(dp6487
I0
(dp6488
S'0.0'
p6489
(dp6490
I-1
(dp6491
S'0.0'
p6492
(dp6493
I-2
S'0.0'
p6494
sssssssssssssssssssssssssI-1
(dp6495
S'0.0'
p6496
(dp6497
I-1
S'0.0'
p6498
sssssssssI-1
(dp6499
S'0.0'
p6500
(dp6501
I0
S'0.0'
p6502
sI-2
(dp6503
S'0.0'
p6504
(dp6505
I-1
S'0.0'
p6506
sssssssI-1
(dp6507
S'0.36'
p6508
(dp6509
I0
(dp6510
S'0.0'
p6511
(dp6512
I0
S'0.0'
p6513
sI-1
S'0.0'
p6514
sI-2
S'0.0'
p6515
sssI-1
(dp6516
S'0.5'
p6517
(dp6518
I0
(dp6519
S'0.33'
p6520
(dp6521
I0
(dp6522
S'1.0'
p6523
(dp6524
I-2
(dp6525
S'1.0'
p6526
(dp6527
I0
(dp6528
S'1.0'
p6529
(dp6530
I0
(dp6531
S'1.0'
p6532
(dp6533
I0
(dp6534
S'1.0'
p6535
(dp6536
I-2
(dp6537
S'1.0'
p6538
(dp6539
I0
(dp6540
S'1.0'
p6541
(dp6542
I0
(dp6543
S'1.0'
p6544
(dp6545
I2
(dp6546
S'1.0'
p6547
(dp6548
I-1
(dp6549
S'1.0'
p6550
(dp6551
I0
(dp6552
S'1.0'
p6553
(dp6554
I2
S'1.0'
p6555
sssssssssssssssssssssssI1
(dp6556
S'0.0'
p6557
(dp6558
I0
(dp6559
S'0.0'
p6560
(dp6561
I-1
(dp6562
S'0.0'
p6563
(dp6564
I-1
(dp6565
S'0.0'
p6566
(dp6567
I1
(dp6568
S'0.0'
p6569
(dp6570
I0
(dp6571
S'0.0'
p6572
(dp6573
I-2
(dp6574
S'0.0'
p6575
(dp6576
I-1
(dp6577
S'0.0'
p6578
(dp6579
I-1
S'0.0'
p6580
sssssssssssssssssI-2
(dp6581
S'0.0'
p6582
(dp6583
I-1
(dp6584
S'0.0'
p6585
(dp6586
I0
(dp6587
S'0.0'
p6588
(dp6589
I-2
(dp6590
S'0.0'
p6591
(dp6592
I-1
(dp6593
S'0.0'
p6594
(dp6595
I-1
(dp6596
S'0.0'
p6597
(dp6598
I0
(dp6599
S'0.0'
p6600
(dp6601
I-2
(dp6602
S'0.0'
p6603
(dp6604
I0
(dp6605
S'0.0'
p6606
(dp6607
I-1
S'0.0'
p6608
sssssssssssssssssssssI-1
(dp6609
S'0.6'
p6610
(dp6611
I0
(dp6612
S'0.75'
p6613
(dp6614
I0
S'0.0'
p6615
sI1
(dp6616
S'1.0'
p6617
(dp6618
I0
S'1.0'
p6619
sI-1
(dp6620
S'1.0'
p6621
(dp6622
I0
(dp6623
S'1.0'
p6624
(dp6625
I-1
(dp6626
S'1.0'
p6627
(dp6628
I-2
(dp6629
S'1.0'
p6630
(dp6631
I-1
(dp6632
S'1.0'
p6633
(dp6634
I-1
(dp6635
S'1.0'
p6636
(dp6637
I-1
(dp6638
S'1.0'
p6639
(dp6640
I-1
(dp6641
S'1.0'
p6642
(dp6643
I-1
(dp6644
S'1.0'
p6645
(dp6646
I-1
(dp6647
S'1.0'
p6648
(dp6649
I0
(dp6650
S'1.0'
p6651
(dp6652
I1
(dp6653
S'1.0'
p6654
(dp6655
I0
(dp6656
S'1.0'
p6657
(dp6658
I1
S'1.0'
p6659
sssssssssssssssssssssssssssssssI-1
S'0.0'
p6660
sssssssssssI-1
(dp6661
S'0.1'
p6662
(dp6663
I0
(dp6664
S'0.13'
p6665
(dp6666
I0
S'0.0'
p6667
sI2
(dp6668
S'0.0'
p6669
(dp6670
I0
(dp6671
S'0.0'
p6672
(dp6673
I-1
(dp6674
S'0.0'
p6675
(dp6676
I-1
(dp6677
S'0.0'
p6678
(dp6679
I-2
S'0.0'
p6680
sssssssI-1
S'0.0'
p6681
sssI-1
(dp6682
S'0.0'
p6683
(dp6684
I0
(dp6685
S'0.0'
p6686
(dp6687
I2
(dp6688
S'0.0'
p6689
(dp6690
I-2
(dp6691
S'0.0'
p6692
(dp6693
I0
(dp6694
S'0.0'
p6695
(dp6696
I1
(dp6697
S'0.0'
p6698
(dp6699
I-1
(dp6700
S'0.0'
p6701
(dp6702
I0
(dp6703
S'0.0'
p6704
(dp6705
I0
(dp6706
S'0.0'
p6707
(dp6708
I-1
(dp6709
S'0.0'
p6710
(dp6711
I1
S'0.0'
p6712
sssssssssssssssssssssI-2
(dp6713
S'0.33'
p6714
(dp6715
I0
(dp6716
S'0.0'
p6717
(dp6718
I0
(dp6719
S'0.0'
p6720
(dp6721
I1
S'0.0'
p6722
sssssI-1
(dp6723
S'0.5'
p6724
(dp6725
I0
(dp6726
S'1.0'
p6727
(dp6728
I2
S'1.0'
p6729
sssI-1
(dp6730
S'0.0'
p6731
(dp6732
I-2
S'0.0'
p6733
sssssssssI1
(dp6734
S'0.0'
p6735
(dp6736
I-1
S'0.0'
p6737
sssI-1
(dp6738
S'0.14'
p6739
(dp6740
I0
(dp6741
S'0.25'
p6742
(dp6743
I0
S'0.0'
p6744
sI-1
(dp6745
S'0.5'
p6746
(dp6747
I-2
(dp6748
S'0.0'
p6749
(dp6750
I0
(dp6751
S'0.0'
p6752
(dp6753
I1
(dp6754
S'0.0'
p6755
(dp6756
I-1
(dp6757
S'0.0'
p6758
(dp6759
I-2
(dp6760
S'0.0'
p6761
(dp6762
I-1
(dp6763
S'0.0'
p6764
(dp6765
I0
(dp6766
S'0.0'
p6767
(dp6768
I-2
(dp6769
S'0.0'
p6770
(dp6771
I-1
S'0.0'
p6772
sssssssssssssssssI-1
(dp6773
S'1.0'
p6774
(dp6775
I2
S'1.0'
p6776
sssssssI1
(dp6777
S'0.0'
p6778
(dp6779
I0
S'0.0'
p6780
sI-1
(dp6781
S'0.0'
p6782
(dp6783
I-1
S'0.0'
p6784
sssssI-1
(dp6785
S'0.0'
p6786
(dp6787
I1
(dp6788
S'0.0'
p6789
(dp6790
I0
(dp6791
S'0.0'
p6792
(dp6793
I-1
S'0.0'
p6794
sssssssssI-2
(dp6795
S'0.0'
p6796
(dp6797
I0
(dp6798
S'0.0'
p6799
(dp6800
I0
S'0.0'
p6801
sI1
(dp6802
S'0.0'
p6803
(dp6804
I-1
(dp6805
S'0.0'
p6806
(dp6807
I-1
(dp6808
S'0.0'
p6809
(dp6810
I-1
(dp6811
S'0.0'
p6812
(dp6813
I-1
(dp6814
S'0.0'
p6815
(dp6816
I0
(dp6817
S'0.0'
p6818
(dp6819
I1
(dp6820
S'0.0'
p6821
(dp6822
I0
(dp6823
S'0.0'
p6824
(dp6825
I-2
S'0.0'
p6826
sssssssssssssssssssI-1
(dp6827
S'0.0'
p6828
(dp6829
I-1
(dp6830
S'0.0'
p6831
(dp6832
I-1
(dp6833
S'0.0'
p6834
(dp6835
I-1
S'0.0'
p6836
sssssssssssI-2
(dp6837
S'0.14'
p6838
(dp6839
I0
(dp6840
S'0.18'
p6841
(dp6842
I0
(dp6843
S'0.0'
p6844
(dp6845
I0
S'0.0'
p6846
sI1
(dp6847
S'0.0'
p6848
(dp6849
I-1
(dp6850
S'0.0'
p6851
(dp6852
I0
(dp6853
S'0.0'
p6854
(dp6855
I-1
S'0.0'
p6856
sssssssI2
(dp6857
S'0.0'
p6858
(dp6859
I0
(dp6860
S'0.0'
p6861
(dp6862
I1
(dp6863
S'0.0'
p6864
(dp6865
I-1
(dp6866
S'0.0'
p6867
(dp6868
I-1
S'0.0'
p6869
sssssssssssI1
S'1.0'
p6870
sI-2
S'0.0'
p6871
sI-1
(dp6872
S'0.67'
p6873
(dp6874
I0
S'0.5'
p6875
sI1
S'1.0'
p6876
sssssI-1
(dp6877
S'0.0'
p6878
(dp6879
I0
(dp6880
S'0.0'
p6881
(dp6882
I0
S'0.0'
p6883
sI-1
(dp6884
S'0.0'
p6885
(dp6886
I0
(dp6887
S'0.0'
p6888
(dp6889
I-2
(dp6890
S'0.0'
p6891
(dp6892
I0
(dp6893
S'0.0'
p6894
(dp6895
I1
(dp6896
S'0.0'
p6897
(dp6898
I-2
(dp6899
S'0.0'
p6900
(dp6901
I0
(dp6902
S'0.0'
p6903
(dp6904
I0
(dp6905
S'0.0'
p6906
(dp6907
I-2
(dp6908
S'0.0'
p6909
(dp6910
I1
S'0.0'
p6911
sssssssssssssssssssI-2
(dp6912
S'0.0'
p6913
(dp6914
I-1
(dp6915
S'0.0'
p6916
(dp6917
I-1
S'0.0'
p6918
sssssssI-1
S'0.0'
p6919
sssssssI-1
(dp6920
S'0.11'
p6921
(dp6922
I0
(dp6923
S'0.05'
p6924
(dp6925
I0
S'0.03'
p6926
sI1
(dp6927
S'0.0'
p6928
(dp6929
I0
(dp6930
S'0.0'
p6931
(dp6932
I0
S'0.0'
p6933
sI-2
(dp6934
S'0.0'
p6935
(dp6936
I-1
(dp6937
S'0.0'
p6938
(dp6939
I0
(dp6940
S'0.0'
p6941
(dp6942
I-1
(dp6943
S'0.0'
p6944
(dp6945
I1
(dp6946
S'0.0'
p6947
(dp6948
I-1
(dp6949
S'0.0'
p6950
(dp6951
I0
(dp6952
S'0.0'
p6953
(dp6954
I0
(dp6955
S'0.0'
p6956
(dp6957
I-1
(dp6958
S'0.0'
p6959
(dp6960
I1
(dp6961
S'0.0'
p6962
(dp6963
I-2
S'0.0'
p6964
sssssssssssssssssssssssI-1
(dp6965
S'0.0'
p6966
(dp6967
I0
(dp6968
S'0.0'
p6969
(dp6970
I1
(dp6971
S'0.0'
p6972
(dp6973
I-1
(dp6974
S'0.0'
p6975
(dp6976
I0
(dp6977
S'0.0'
p6978
(dp6979
I-2
S'0.0'
p6980
sssssssI-2
(dp6981
S'0.0'
p6982
(dp6983
I-1
(dp6984
S'0.0'
p6985
(dp6986
I0
(dp6987
S'0.0'
p6988
(dp6989
I-1
(dp6990
S'0.0'
p6991
(dp6992
I0
(dp6993
S'0.0'
p6994
(dp6995
I-2
(dp6996
S'0.0'
p6997
(dp6998
I-1
(dp6999
S'0.0'
p7000
(dp7001
I-2
S'0.0'
p7002
sssssssssssssssssssssI-1
(dp7003
S'0.07'
p7004
(dp7005
I0
(dp7006
S'0.0'
p7007
(dp7008
I0
S'0.0'
p7009
sI-2
(dp7010
S'0.0'
p7011
(dp7012
I1
(dp7013
S'0.0'
p7014
(dp7015
I-1
(dp7016
S'0.0'
p7017
(dp7018
I-1
(dp7019
S'0.0'
p7020
(dp7021
I-1
S'0.0'
p7022
sssssssssssI1
(dp7023
S'0.0'
p7024
(dp7025
I-1
(dp7026
S'0.0'
p7027
(dp7028
I-1
S'0.0'
p7029
sssssI-1
(dp7030
S'0.0'
p7031
(dp7032
I0
S'0.0'
p7033
sI1
(dp7034
S'0.0'
p7035
(dp7036
I0
(dp7037
S'0.0'
p7038
(dp7039
I1
(dp7040
S'0.0'
p7041
(dp7042
I-1
(dp7043
S'0.0'
p7044
(dp7045
I-1
(dp7046
S'0.0'
p7047
(dp7048
I-1
(dp7049
S'0.0'
p7050
(dp7051
I-1
S'0.0'
p7052
sssssssssssI-1
(dp7053
S'0.0'
p7054
(dp7055
I0
(dp7056
S'0.0'
p7057
(dp7058
I-2
(dp7059
S'0.0'
p7060
(dp7061
I-1
(dp7062
S'0.0'
p7063
(dp7064
I0
(dp7065
S'0.0'
p7066
(dp7067
I-1
(dp7068
S'0.0'
p7069
(dp7070
I-2
(dp7071
S'0.0'
p7072
(dp7073
I-1
S'0.0'
p7074
sssssssssssssssssI-2
(dp7075
S'0.0'
p7076
(dp7077
I0
(dp7078
S'0.0'
p7079
(dp7080
I0
S'0.0'
p7081
sI-1
(dp7082
S'0.0'
p7083
(dp7084
I-2
(dp7085
S'0.0'
p7086
(dp7087
I-1
(dp7088
S'0.0'
p7089
(dp7090
I0
(dp7091
S'0.0'
p7092
(dp7093
I-2
(dp7094
S'0.0'
p7095
(dp7096
I-1
S'0.0'
p7097
sssssssssssssssssI-2
(dp7098
S'0.25'
p7099
(dp7100
I0
(dp7101
S'0.5'
p7102
(dp7103
I0
S'0.0'
p7104
sI1
(dp7105
S'1.0'
p7106
(dp7107
I0
(dp7108
S'1.0'
p7109
(dp7110
I1
S'1.0'
p7111
sssssssI-1
S'0.0'
p7112
sssssI-2
(dp7113
S'0.1'
p7114
(dp7115
I0
(dp7116
S'0.17'
p7117
(dp7118
I0
S'0.0'
p7119
sI1
S'0.5'
p7120
sI-1
(dp7121
S'0.0'
p7122
(dp7123
I-2
S'0.0'
p7124
sssssI-1
(dp7125
S'0.0'
p7126
(dp7127
I0
S'0.0'
p7128
sI-1
(dp7129
S'0.0'
p7130
(dp7131
I0
S'0.0'
p7132
sI-1
(dp7133
S'0.0'
p7134
(dp7135
I-1
S'0.0'
p7136
sssssssssssI-1
(dp7137
S'0.17'
p7138
(dp7139
I0
(dp7140
S'0.15'
p7141
(dp7142
I0
(dp7143
S'0.04'
p7144
(dp7145
I0
S'0.0'
p7146
sI1
(dp7147
S'0.0'
p7148
(dp7149
I1
(dp7150
S'0.0'
p7151
(dp7152
I0
(dp7153
S'0.0'
p7154
(dp7155
I0
(dp7156
S'0.0'
p7157
(dp7158
I-1
(dp7159
S'0.0'
p7160
(dp7161
I1
S'0.0'
p7162
sssssssssssI2
(dp7163
S'0.5'
p7164
(dp7165
I0
(dp7166
S'0.5'
p7167
(dp7168
I0
S'1.0'
p7169
sI-2
(dp7170
S'0.0'
p7171
(dp7172
I-1
S'0.0'
p7173
sssssssI-1
(dp7174
S'0.0'
p7175
(dp7176
I1
(dp7177
S'0.0'
p7178
(dp7179
I-2
(dp7180
S'0.0'
p7181
(dp7182
I-1
(dp7183
S'0.0'
p7184
(dp7185
I0
(dp7186
S'0.0'
p7187
(dp7188
I-2
S'0.0'
p7189
sssssssssssssI1
(dp7190
S'0.22'
p7191
(dp7192
I0
S'0.2'
p7193
sI-1
(dp7194
S'0.25'
p7195
(dp7196
I0
S'0.5'
p7197
sI-1
S'0.0'
p7198
sssssI-1
(dp7199
S'0.36'
p7200
(dp7201
I0
(dp7202
S'0.25'
p7203
(dp7204
I0
S'0.0'
p7205
sI1
(dp7206
S'0.0'
p7207
(dp7208
I-1
(dp7209
S'0.0'
p7210
(dp7211
I-2
S'0.0'
p7212
sssssI2
(dp7213
S'1.0'
p7214
(dp7215
I0
(dp7216
S'1.0'
p7217
(dp7218
I0
(dp7219
S'1.0'
p7220
(dp7221
I1
(dp7222
S'1.0'
p7223
(dp7224
I1
(dp7225
S'1.0'
p7226
(dp7227
I0
(dp7228
S'1.0'
p7229
(dp7230
I-1
(dp7231
S'1.0'
p7232
(dp7233
I0
(dp7234
S'1.0'
p7235
(dp7236
I2
S'1.0'
p7237
sssssssssssssssssssI1
(dp7238
S'1.0'
p7239
(dp7240
I0
S'1.0'
p7241
sI-1
(dp7242
S'1.0'
p7243
(dp7244
I0
(dp7245
S'1.0'
p7246
(dp7247
I0
(dp7248
S'1.0'
p7249
(dp7250
I1
(dp7251
S'1.0'
p7252
(dp7253
I1
S'1.0'
p7254
sssssssssssI-2
(dp7255
S'0.0'
p7256
(dp7257
I0
S'0.0'
p7258
sI-1
(dp7259
S'0.0'
p7260
(dp7261
I-1
(dp7262
S'0.0'
p7263
(dp7264
I-1
(dp7265
S'0.0'
p7266
(dp7267
I0
(dp7268
S'0.0'
p7269
(dp7270
I-1
(dp7271
S'0.0'
p7272
(dp7273
I-1
(dp7274
S'0.0'
p7275
(dp7276
I-2
S'0.0'
p7277
sssssssssssssssI-1
(dp7278
S'0.33'
p7279
(dp7280
I0
S'0.0'
p7281
sI1
(dp7282
S'1.0'
p7283
(dp7284
I-1
(dp7285
S'1.0'
p7286
(dp7287
I-1
(dp7288
S'1.0'
p7289
(dp7290
I0
(dp7291
S'1.0'
p7292
(dp7293
I1
S'1.0'
p7294
sssssssssssssI-2
(dp7295
S'0.0'
p7296
(dp7297
I0
(dp7298
S'0.0'
p7299
(dp7300
I0
S'0.0'
p7301
sI-1
(dp7302
S'0.0'
p7303
(dp7304
I-1
S'0.0'
p7305
sssssI-1
(dp7306
S'0.0'
p7307
(dp7308
I-1
S'0.0'
p7309
sssssssI-1
(dp7310
S'0.19'
p7311
(dp7312
I0
(dp7313
S'0.17'
p7314
(dp7315
I0
(dp7316
S'0.05'
p7317
(dp7318
I0
S'0.0'
p7319
sI1
(dp7320
S'0.0'
p7321
(dp7322
I-2
(dp7323
S'0.0'
p7324
(dp7325
I0
(dp7326
S'0.0'
p7327
(dp7328
I-2
(dp7329
S'0.0'
p7330
(dp7331
I0
(dp7332
S'0.0'
p7333
(dp7334
I-2
(dp7335
S'0.0'
p7336
(dp7337
I-1
S'0.0'
p7338
sssssssssssssI2
(dp7339
S'0.0'
p7340
(dp7341
I-1
S'0.0'
p7342
sssI-1
(dp7343
S'0.5'
p7344
(dp7345
I2
S'1.0'
p7346
sI-2
(dp7347
S'0.0'
p7348
(dp7349
I-2
(dp7350
S'0.0'
p7351
(dp7352
I-1
(dp7353
S'0.0'
p7354
(dp7355
I-1
(dp7356
S'0.0'
p7357
(dp7358
I-1
(dp7359
S'0.0'
p7360
(dp7361
I-1
(dp7362
S'0.0'
p7363
(dp7364
I-1
(dp7365
S'0.0'
p7366
(dp7367
I-1
S'0.0'
p7368
sssssssssssssssssssI1
(dp7369
S'0.0'
p7370
(dp7371
I-1
S'0.0'
p7372
sssI-1
S'0.0'
p7373
sI-2
(dp7374
S'0.5'
p7375
(dp7376
I0
(dp7377
S'1.0'
p7378
(dp7379
I-2
(dp7380
S'1.0'
p7381
(dp7382
I-1
(dp7383
S'1.0'
p7384
(dp7385
I0
(dp7386
S'1.0'
p7387
(dp7388
I-2
(dp7389
S'1.0'
p7390
(dp7391
I-1
(dp7392
S'1.0'
p7393
(dp7394
I0
(dp7395
S'1.0'
p7396
(dp7397
I0
(dp7398
S'1.0'
p7399
(dp7400
I-2
(dp7401
S'1.0'
p7402
(dp7403
I1
S'1.0'
p7404
sssssssssssssssssssI-1
(dp7405
S'0.43'
p7406
(dp7407
I0
(dp7408
S'0.5'
p7409
(dp7410
I0
S'0.0'
p7411
sI-1
(dp7412
S'1.0'
p7413
(dp7414
I1
S'1.0'
p7415
sI-2
(dp7416
S'1.0'
p7417
(dp7418
I0
(dp7419
S'1.0'
p7420
(dp7421
I-2
(dp7422
S'1.0'
p7423
(dp7424
I0
(dp7425
S'1.0'
p7426
(dp7427
I1
(dp7428
S'1.0'
p7429
(dp7430
I0
(dp7431
S'1.0'
p7432
(dp7433
I-2
(dp7434
S'1.0'
p7435
(dp7436
I0
(dp7437
S'1.0'
p7438
(dp7439
I0
(dp7440
S'1.0'
p7441
(dp7442
I2
S'1.0'
p7443
sssssssssssssssssssI-1
(dp7444
S'1.0'
p7445
(dp7446
I1
(dp7447
S'1.0'
p7448
(dp7449
I-1
(dp7450
S'1.0'
p7451
(dp7452
I0
(dp7453
S'1.0'
p7454
(dp7455
I-2
(dp7456
S'1.0'
p7457
(dp7458
I-1
(dp7459
S'1.0'
p7460
(dp7461
I-1
(dp7462
S'1.0'
p7463
(dp7464
I0
(dp7465
S'1.0'
p7466
(dp7467
I-2
(dp7468
S'1.0'
p7469
(dp7470
I-1
(dp7471
S'1.0'
p7472
(dp7473
I0
(dp7474
S'1.0'
p7475
(dp7476
I1
(dp7477
S'1.0'
p7478
(dp7479
I0
(dp7480
S'1.0'
p7481
(dp7482
I-2
(dp7483
S'1.0'
p7484
(dp7485
I0
(dp7486
S'1.0'
p7487
(dp7488
I-2
(dp7489
S'1.0'
p7490
(dp7491
I-1
(dp7492
S'1.0'
p7493
(dp7494
I0
(dp7495
S'1.0'
p7496
(dp7497
I-2
(dp7498
S'1.0'
p7499
(dp7500
I0
(dp7501
S'1.0'
p7502
(dp7503
I1
(dp7504
S'1.0'
p7505
(dp7506
I-1
(dp7507
S'1.0'
p7508
(dp7509
I0
(dp7510
S'1.0'
p7511
(dp7512
I-1
(dp7513
S'1.0'
p7514
(dp7515
I0
(dp7516
S'1.0'
p7517
(dp7518
I2
S'1.0'
p7519
sssssssssssssssssssssssssssssssssssssssssssssssssssssI-2
(dp7520
S'0.0'
p7521
(dp7522
I0
(dp7523
S'0.0'
p7524
(dp7525
I-2
(dp7526
S'0.0'
p7527
(dp7528
I-1
(dp7529
S'0.0'
p7530
(dp7531
I0
(dp7532
S'0.0'
p7533
(dp7534
I-2
(dp7535
S'0.0'
p7536
(dp7537
I-1
(dp7538
S'0.0'
p7539
(dp7540
I0
(dp7541
S'0.0'
p7542
(dp7543
I-2
(dp7544
S'0.0'
p7545
(dp7546
I-1
(dp7547
S'0.0'
p7548
(dp7549
I-1
(dp7550
S'0.0'
p7551
(dp7552
I-1
(dp7553
S'0.0'
p7554
(dp7555
I-1
(dp7556
S'0.0'
p7557
(dp7558
I-1
S'0.0'
p7559
sssssssssssssssssssssssssssssI-1
(dp7560
S'0.0'
p7561
(dp7562
I0
(dp7563
S'0.0'
p7564
(dp7565
I-2
(dp7566
S'0.0'
p7567
(dp7568
I-1
(dp7569
S'0.0'
p7570
(dp7571
I-1
(dp7572
S'0.0'
p7573
(dp7574
I-1
(dp7575
S'0.0'
p7576
(dp7577
I-1
(dp7578
S'0.0'
p7579
(dp7580
I0
(dp7581
S'0.0'
p7582
(dp7583
I-1
(dp7584
S'0.0'
p7585
(dp7586
I-1
S'0.0'
p7587
sssssssssssssssssssssssssI-1
(dp7588
S'0.21'
p7589
(dp7590
I0
(dp7591
S'0.2'
p7592
(dp7593
I0
S'0.0'
p7594
sI1
(dp7595
S'0.0'
p7596
(dp7597
I0
(dp7598
S'0.0'
p7599
(dp7600
I-2
(dp7601
S'0.0'
p7602
(dp7603
I0
(dp7604
S'0.0'
p7605
(dp7606
I0
(dp7607
S'0.0'
p7608
(dp7609
I1
(dp7610
S'0.0'
p7611
(dp7612
I-2
S'0.0'
p7613
sssssssssssssI-1
(dp7614
S'0.67'
p7615
(dp7616
I1
S'1.0'
p7617
sI-1
(dp7618
S'1.0'
p7619
(dp7620
I1
(dp7621
S'1.0'
p7622
(dp7623
I-1
(dp7624
S'1.0'
p7625
(dp7626
I-1
(dp7627
S'1.0'
p7628
(dp7629
I0
(dp7630
S'1.0'
p7631
(dp7632
I0
(dp7633
S'1.0'
p7634
(dp7635
I2
S'1.0'
p7636
sssssssssssssI-2
(dp7637
S'0.0'
p7638
(dp7639
I-1
(dp7640
S'0.0'
p7641
(dp7642
I0
(dp7643
S'0.0'
p7644
(dp7645
I-1
(dp7646
S'0.0'
p7647
(dp7648
I1
(dp7649
S'0.0'
p7650
(dp7651
I0
(dp7652
S'0.0'
p7653
(dp7654
I1
(dp7655
S'0.0'
p7656
(dp7657
I0
(dp7658
S'0.0'
p7659
(dp7660
I-2
(dp7661
S'0.0'
p7662
(dp7663
I0
(dp7664
S'0.0'
p7665
(dp7666
I1
(dp7667
S'0.0'
p7668
(dp7669
I-1
(dp7670
S'0.0'
p7671
(dp7672
I-1
S'0.0'
p7673
sssssssssssssssssssssssssssI-2
(dp7674
S'0.25'
p7675
(dp7676
I0
(dp7677
S'0.0'
p7678
(dp7679
I-1
(dp7680
S'0.0'
p7681
(dp7682
I-2
(dp7683
S'0.0'
p7684
(dp7685
I0
(dp7686
S'0.0'
p7687
(dp7688
I-1
(dp7689
S'0.0'
p7690
(dp7691
I1
(dp7692
S'0.0'
p7693
(dp7694
I0
(dp7695
S'0.0'
p7696
(dp7697
I-1
S'0.0'
p7698
sssssssssssssssI-1
(dp7699
S'0.33'
p7700
(dp7701
I0
S'0.0'
p7702
sI-1
(dp7703
S'1.0'
p7704
(dp7705
I0
(dp7706
S'1.0'
p7707
(dp7708
I1
(dp7709
S'1.0'
p7710
(dp7711
I-1
(dp7712
S'1.0'
p7713
(dp7714
I0
(dp7715
S'1.0'
p7716
(dp7717
I-1
(dp7718
S'1.0'
p7719
(dp7720
I-2
(dp7721
S'1.0'
p7722
(dp7723
I0
(dp7724
S'1.0'
p7725
(dp7726
I0
(dp7727
S'1.0'
p7728
(dp7729
I-2
(dp7730
S'1.0'
p7731
(dp7732
I-1
(dp7733
S'1.0'
p7734
(dp7735
I0
(dp7736
S'1.0'
p7737
(dp7738
I2
S'1.0'
p7739
sssssssssssssssssssssssssssssssI-1
(dp7740
S'0.22'
p7741
(dp7742
I0
(dp7743
S'0.0'
p7744
(dp7745
I0
S'0.0'
p7746
sI1
S'0.0'
p7747
sI-1
(dp7748
S'0.0'
p7749
(dp7750
I-2
(dp7751
S'0.0'
p7752
(dp7753
I-1
(dp7754
S'0.0'
p7755
(dp7756
I0
(dp7757
S'0.0'
p7758
(dp7759
I0
(dp7760
S'0.0'
p7761
(dp7762
I0
(dp7763
S'0.0'
p7764
(dp7765
I-2
(dp7766
S'0.0'
p7767
(dp7768
I-1
(dp7769
S'0.0'
p7770
(dp7771
I-1
S'0.0'
p7772
sssssssssssssssssssI-1
(dp7773
S'0.67'
p7774
(dp7775
I0
(dp7776
S'1.0'
p7777
(dp7778
I-2
(dp7779
S'1.0'
p7780
(dp7781
I0
(dp7782
S'1.0'
p7783
(dp7784
I1
S'1.0'
p7785
sssssI-1
(dp7786
S'1.0'
p7787
(dp7788
I0
(dp7789
S'1.0'
p7790
(dp7791
I-1
(dp7792
S'1.0'
p7793
(dp7794
I1
(dp7795
S'1.0'
p7796
(dp7797
I-1
(dp7798
S'1.0'
p7799
(dp7800
I0
(dp7801
S'1.0'
p7802
(dp7803
I2
S'1.0'
p7804
sssssssssssssssI-1
(dp7805
S'0.0'
p7806
(dp7807
I0
(dp7808
S'0.0'
p7809
(dp7810
I-2
(dp7811
S'0.0'
p7812
(dp7813
I0
(dp7814
S'0.0'
p7815
(dp7816
I-1
(dp7817
S'0.0'
p7818
(dp7819
I-2
(dp7820
S'0.0'
p7821
(dp7822
I0
(dp7823
S'0.0'
p7824
(dp7825
I-2
(dp7826
S'0.0'
p7827
(dp7828
I0
(dp7829
S'0.0'
p7830
(dp7831
I0
(dp7832
S'0.0'
p7833
(dp7834
I2
(dp7835
S'0.0'
p7836
(dp7837
I0
(dp7838
S'0.0'
p7839
(dp7840
I1
(dp7841
S'0.0'
p7842
(dp7843
I-1
(dp7844
S'0.0'
p7845
(dp7846
I0
(dp7847
S'0.0'
p7848
(dp7849
I-2
(dp7850
S'0.0'
p7851
(dp7852
I-1
(dp7853
S'0.0'
p7854
(dp7855
I-1
(dp7856
S'0.0'
p7857
(dp7858
I-1
S'0.0'
p7859
ssssssssssssssssssssssssssssssssssssssssssssssssssssss.