(dp0
S'0.14'
p1
(dp2
I0
(dp3
S'0.18'
p4
(dp5
I0
(dp6
S'0.16'
p7
(dp8
I0
S'0.01'
p9
sI1
(dp10
S'0.25'
p11
(dp12
I0
S'0.0'
p13
sI1
(dp14
S'0.33'
p15
(dp16
I0
(dp17
S'0.0'
p18
(dp19
I1
(dp20
S'0.0'
p21
(dp22
I-1
(dp23
S'0.0'
p24
(dp25
I0
(dp26
S'0.0'
p27
(dp28
I-2
(dp29
S'0.0'
p30
(dp31
I-1
(dp32
S'0.0'
p33
(dp34
I0
(dp35
S'0.0'
p36
(dp37
I-1
(dp38
S'0.0'
p39
(dp40
I0
(dp41
S'0.0'
p42
(dp43
I2
(dp44
S'0.0'
p45
(dp46
I0
(dp47
S'0.0'
p48
(dp49
I1
(dp50
S'0.0'
p51
(dp52
I0
(dp53
S'0.0'
p54
(dp55
I-1
(dp56
S'0.0'
p57
(dp58
I0
(dp59
S'0.0'
p60
(dp61
I-2
(dp62
S'0.0'
p63
(dp64
I1
(dp65
S'0.0'
p66
(dp67
I0
(dp68
S'0.0'
p69
(dp70
I-2
(dp71
S'0.0'
p72
(dp73
I0
(dp74
S'0.0'
p75
(dp76
I-1
(dp77
S'0.0'
p78
(dp79
I-1
(dp80
S'0.0'
p81
(dp82
I1
(dp83
S'0.0'
p84
(dp85
I-1
(dp86
S'0.0'
p87
(dp88
I0
(dp89
S'0.0'
p90
(dp91
I-1
(dp92
S'0.0'
p93
(dp94
I-1
(dp95
S'0.0'
p96
(dp97
I0
(dp98
S'0.0'
p99
(dp100
I-2
(dp101
S'0.0'
p102
(dp103
I0
(dp104
S'0.0'
p105
(dp106
I-2
(dp107
S'0.0'
p108
(dp109
I1
(dp110
S'0.0'
p111
(dp112
I-1
(dp113
S'0.0'
p114
(dp115
I-1
(dp116
S'0.0'
p117
(dp118
I-1
(dp119
S'0.0'
p120
(dp121
I-1
(dp122
S'0.0'
p123
(dp124
I0
(dp125
S'0.0'
p126
(dp127
I-2
S'0.0'
p128
sssssssssssssssssssssssssssssssssssssssssssssssssssssssssssssssssssssssssssI-1
(dp129
S'0.5'
p130
(dp131
I-1
(dp132
S'0.5'
p133
(dp134
I0
(dp135
S'0.5'
p136
(dp137
I1
(dp138
S'0.5'
p139
(dp140
I-1
(dp141
S'0.5'
p142
(dp143
I0
(dp144
S'0.5'
p145
(dp146
I0
(dp147
S'0.5'
p148
(dp149
I0
S'0.0'
p150
sI-1
(dp151
S'1.0'
p152
(dp153
I2
S'1.0'
p154
sssssssssssssssssssI-2
(dp155
S'0.5'
p156
(dp157
I0
(dp158
S'0.0'
p159
(dp160
I0
S'0.0'
p161
sI-1
(dp162
S'0.0'
p163
(dp164
I-1
(dp165
S'0.0'
p166
(dp167
I1
(dp168
S'0.0'
p169
(dp170
I0
(dp171
S'0.0'
p172
(dp173
I0
(dp174
S'0.0'
p175
(dp176
I-2
(dp177
S'0.0'
p178
(dp179
I-2
(dp180
S'0.0'
p181
(dp182
I-1
(dp183
S'0.0'
p184
(dp185
I-1
S'0.0'
p186
sssssssssssssssssssI-1
(dp187
S'0.75'
p188
(dp189
I0
(dp190
S'1.0'
p191
(dp192
I0
(dp193
S'1.0'
p194
(dp195
I-1
(dp196
S'1.0'
p197
(dp198
I0
(dp199
S'1.0'
p200
(dp201
I1
(dp202
S'1.0'
p203
(dp204
I0
(dp205
S'1.0'
p206
(dp207
I2
S'1.0'
p208
sssssssssssssI-1
(dp209
S'0.67'
p210
(dp211
I0
(dp212
S'0.67'
p213
(dp214
I0
(dp215
S'0.5'
p216
(dp217
I0
(dp218
S'0.5'
p219
(dp220
I0
S'0.0'
p221
sI-1
(dp222
S'1.0'
p223
(dp224
I1
(dp225
S'1.0'
p226
(dp227
I2
S'1.0'
p228
sssssssssI-2
(dp229
S'1.0'
p230
(dp231
I-1
(dp232
S'1.0'
p233
(dp234
I0
(dp235
S'1.0'
p236
(dp237
I-1
(dp238
S'1.0'
p239
(dp240
I-1
(dp241
S'1.0'
p242
(dp243
I1
S'1.0'
p244
sssssssssssssssssssI-1
(dp245
S'1.0'
p246
(dp247
I1
(dp248
S'1.0'
p249
(dp250
I-1
(dp251
S'1.0'
p252
(dp253
I0
(dp254
S'1.0'
p255
(dp256
I-1
(dp257
S'1.0'
p258
(dp259
I-1
(dp260
S'1.0'
p261
(dp262
I-1
(dp263
S'1.0'
p264
(dp265
I-1
(dp266
S'1.0'
p267
(dp268
I-1
(dp269
S'1.0'
p270
(dp271
I-1
(dp272
S'1.0'
p273
(dp274
I0
(dp275
S'1.0'
p276
(dp277
I0
(dp278
S'1.0'
p279
(dp280
I-2
(dp281
S'1.0'
p282
(dp283
I2
S'1.0'
p284
sssssssssssssssssssssssssssssI2
(dp285
S'0.68'
p286
(dp287
I0
(dp288
S'0.83'
p289
(dp290
I0
S'0.9'
p291
sI1
(dp292
S'0.67'
p293
(dp294
I0
(dp295
S'1.0'
p296
(dp297
I0
S'1.0'
p298
sI-2
(dp299
S'1.0'
p300
(dp301
I0
(dp302
S'1.0'
p303
(dp304
I1
(dp305
S'1.0'
p306
(dp307
I-1
(dp308
S'1.0'
p309
(dp310
I0
(dp311
S'1.0'
p312
(dp313
I0
(dp314
S'1.0'
p315
(dp316
I-2
(dp317
S'1.0'
p318
(dp319
I1
S'1.0'
p320
sssssssssssssssssI-1
(dp321
S'0.0'
p322
(dp323
I0
(dp324
S'0.0'
p325
(dp326
I0
(dp327
S'0.0'
p328
(dp329
I-2
(dp330
S'0.0'
p331
(dp332
I0
(dp333
S'0.0'
p334
(dp335
I-1
S'0.0'
p336
sssssssssssssI-1
(dp337
S'0.75'
p338
(dp339
I0
(dp340
S'1.0'
p341
(dp342
I2
S'1.0'
p343
sssI1
S'1.0'
p344
sI-1
S'0.0'
p345
sI-2
(dp346
S'1.0'
p347
(dp348
I0
(dp349
S'1.0'
p350
(dp351
I-2
(dp352
S'1.0'
p353
(dp354
I0
(dp355
S'1.0'
p356
(dp357
I0
(dp358
S'1.0'
p359
(dp360
I1
S'1.0'
p361
sssssssssssssI-2
(dp362
S'1.0'
p363
(dp364
I0
(dp365
S'1.0'
p366
(dp367
I-2
(dp368
S'1.0'
p369
(dp370
I0
(dp371
S'1.0'
p372
(dp373
I0
(dp374
S'1.0'
p375
(dp376
I0
(dp377
S'1.0'
p378
(dp379
I2
S'1.0'
p380
sssssssssssssssI-1
(dp381
S'0.46'
p382
(dp383
I0
(dp384
S'0.5'
p385
(dp386
I1
(dp387
S'0.0'
p388
(dp389
I0
(dp390
S'0.0'
p391
(dp392
I-2
(dp393
S'0.0'
p394
(dp395
I-1
(dp396
S'0.0'
p397
(dp398
I0
(dp399
S'0.0'
p400
(dp401
I1
S'0.0'
p402
sssssssssssI-1
(dp403
S'0.5'
p404
(dp405
I0
(dp406
S'1.0'
p407
(dp408
I2
S'1.0'
p409
sssI-2
(dp410
S'0.0'
p411
(dp412
I-1
S'0.0'
p413
sssssI-2
(dp414
S'1.0'
p415
(dp416
I0
(dp417
S'1.0'
p418
(dp419
I1
(dp420
S'1.0'
p421
(dp422
I0
(dp423
S'1.0'
p424
(dp425
I-1
(dp426
S'1.0'
p427
(dp428
I1
(dp429
S'1.0'
p430
(dp431
I0
(dp432
S'1.0'
p433
(dp434
I-2
(dp435
S'1.0'
p436
(dp437
I0
(dp438
S'1.0'
p439
(dp440
I0
(dp441
S'1.0'
p442
(dp443
I2
S'1.0'
p444
sssssssssssssssssssssssI-1
(dp445
S'0.44'
p446
(dp447
I0
(dp448
S'0.44'
p449
(dp450
I0
(dp451
S'0.67'
p452
(dp453
I0
S'0.0'
p454
sI2
S'1.0'
p455
sI-2
(dp456
S'1.0'
p457
(dp458
I-2
(dp459
S'1.0'
p460
(dp461
I-1
(dp462
S'1.0'
p463
(dp464
I-1
(dp465
S'1.0'
p466
(dp467
I-1
(dp468
S'1.0'
p469
(dp470
I-1
(dp471
S'1.0'
p472
(dp473
I-1
(dp474
S'1.0'
p475
(dp476
I0
(dp477
S'1.0'
p478
(dp479
I0
(dp480
S'1.0'
p481
(dp482
I-1
(dp483
S'1.0'
p484
(dp485
I2
S'1.0'
p486
sssssssssssssssssssssssI1
(dp487
S'0.5'
p488
(dp489
I0
S'0.0'
p490
sI-1
(dp491
S'1.0'
p492
(dp493
I-1
(dp494
S'1.0'
p495
(dp496
I0
(dp497
S'1.0'
p498
(dp499
I1
(dp500
S'1.0'
p501
(dp502
I-1
(dp503
S'1.0'
p504
(dp505
I-1
(dp506
S'1.0'
p507
(dp508
I-1
(dp509
S'1.0'
p510
(dp511
I0
(dp512
S'1.0'
p513
(dp514
I-1
(dp515
S'1.0'
p516
(dp517
I0
(dp518
S'1.0'
p519
(dp520
I-2
(dp521
S'1.0'
p522
(dp523
I0
(dp524
S'1.0'
p525
(dp526
I1
(dp527
S'1.0'
p528
(dp529
I1
S'1.0'
p530
sssssssssssssssssssssssssssssI-2
(dp531
S'0.0'
p532
(dp533
I-1
(dp534
S'0.0'
p535
(dp536
I-1
(dp537
S'0.0'
p538
(dp539
I0
(dp540
S'0.0'
p541
(dp542
I-2
(dp543
S'0.0'
p544
(dp545
I-1
(dp546
S'0.0'
p547
(dp548
I0
(dp549
S'0.0'
p550
(dp551
I-2
(dp552
S'0.0'
p553
(dp554
I0
(dp555
S'0.0'
p556
(dp557
I1
(dp558
S'0.0'
p559
(dp560
I-1
(dp561
S'0.0'
p562
(dp563
I-1
S'0.0'
p564
sssssssssssssssssssssssI-1
(dp565
S'0.33'
p566
(dp567
I-1
(dp568
S'0.33'
p569
(dp570
I0
S'0.0'
p571
sI1
(dp572
S'0.0'
p573
(dp574
I-1
(dp575
S'0.0'
p576
(dp577
I-1
S'0.0'
p578
sssssI-2
(dp579
S'1.0'
p580
(dp581
I0
(dp582
S'1.0'
p583
(dp584
I-1
(dp585
S'1.0'
p586
(dp587
I-2
(dp588
S'1.0'
p589
(dp590
I-1
(dp591
S'1.0'
p592
(dp593
I-1
(dp594
S'1.0'
p595
(dp596
I-1
(dp597
S'1.0'
p598
(dp599
I-1
(dp600
S'1.0'
p601
(dp602
I0
(dp603
S'1.0'
p604
(dp605
I0
(dp606
S'1.0'
p607
(dp608
I2
S'1.0'
p609
sssssssssssssssssssssssssssssssssI-1
(dp610
S'0.23'
p611
(dp612
I0
(dp613
S'0.25'
p614
(dp615
I0
S'0.0'
p616
sI1
(dp617
S'1.0'
p618
(dp619
I2
S'1.0'
p620
sssI-2
(dp621
S'0.5'
p622
(dp623
I2
(dp624
S'1.0'
p625
(dp626
I0
(dp627
S'1.0'
p628
(dp629
I0
(dp630
S'1.0'
p631
(dp632
I1
(dp633
S'1.0'
p634
(dp635
I-2
(dp636
S'1.0'
p637
(dp638
I-1
(dp639
S'1.0'
p640
(dp641
I0
(dp642
S'1.0'
p643
(dp644
I0
(dp645
S'1.0'
p646
(dp647
I-1
(dp648
S'1.0'
p649
(dp650
I1
S'1.0'
p651
sssssssssssssssssssI-1
(dp652
S'0.0'
p653
(dp654
I2
(dp655
S'0.0'
p656
(dp657
I0
(dp658
S'0.0'
p659
(dp660
I-1
(dp661
S'0.0'
p662
(dp663
I-1
(dp664
S'0.0'
p665
(dp666
I-2
S'0.0'
p667
sssssssssssssssI1
(dp668
S'0.0'
p669
(dp670
I0
S'0.0'
p671
sI-1
(dp672
S'0.0'
p673
(dp674
I-2
(dp675
S'0.0'
p676
(dp677
I-1
S'0.0'
p678
sssssssI2
(dp679
S'1.0'
p680
(dp681
I-1
(dp682
S'1.0'
p683
(dp684
I0
(dp685
S'1.0'
p686
(dp687
I-1
(dp688
S'1.0'
p689
(dp690
I-1
(dp691
S'1.0'
p692
(dp693
I-2
(dp694
S'1.0'
p695
(dp696
I0
(dp697
S'1.0'
p698
(dp699
I1
(dp700
S'1.0'
p701
(dp702
I0
(dp703
S'1.0'
p704
(dp705
I0
(dp706
S'1.0'
p707
(dp708
I-1
(dp709
S'1.0'
p710
(dp711
I-1
(dp712
S'1.0'
p713
(dp714
I2
S'1.0'
p715
sssssssssssssssssssssssssI-1
(dp716
S'0.0'
p717
(dp718
I0
(dp719
S'0.0'
p720
(dp721
I2
(dp722
S'0.0'
p723
(dp724
I1
(dp725
S'0.0'
p726
(dp727
I0
(dp728
S'0.0'
p729
(dp730
I1
(dp731
S'0.0'
p732
(dp733
I-1
S'0.0'
p734
sssssssssssssI-2
(dp735
S'0.0'
p736
(dp737
I-1
(dp738
S'0.0'
p739
(dp740
I1
(dp741
S'0.0'
p742
(dp743
I0
(dp744
S'0.0'
p745
(dp746
I1
(dp747
S'0.0'
p748
(dp749
I0
(dp750
S'0.0'
p751
(dp752
I-2
(dp753
S'0.0'
p754
(dp755
I0
(dp756
S'0.0'
p757
(dp758
I1
(dp759
S'0.0'
p760
(dp761
I0
(dp762
S'0.0'
p763
(dp764
I-1
(dp765
S'0.0'
p766
(dp767
I0
(dp768
S'0.0'
p769
(dp770
I-1
(dp771
S'0.0'
p772
(dp773
I-1
(dp774
S'0.0'
p775
(dp776
I-1
(dp777
S'0.0'
p778
(dp779
I-1
(dp780
S'0.0'
p781
(dp782
I-1
(dp783
S'0.0'
p784
(dp785
I1
(dp786
S'0.0'
p787
(dp788
I1
(dp789
S'0.0'
p790
(dp791
I-1
(dp792
S'0.0'
p793
(dp794
I0
(dp795
S'0.0'
p796
(dp797
I-2
S'0.0'
p798
sssssssssssssssssssssssssssssssssssssssssssssI-2
(dp799
S'0.14'
p800
(dp801
I0
(dp802
S'0.33'
p803
(dp804
I0
S'0.0'
p805
sI1
(dp806
S'0.5'
p807
(dp808
I0
S'0.0'
p809
sI-2
(dp810
S'1.0'
p811
(dp812
I-1
(dp813
S'1.0'
p814
(dp815
I-1
(dp816
S'1.0'
p817
(dp818
I-1
(dp819
S'1.0'
p820
(dp821
I0
(dp822
S'1.0'
p823
(dp824
I1
(dp825
S'1.0'
p826
(dp827
I-1
(dp828
S'1.0'
p829
(dp830
I0
(dp831
S'1.0'
p832
(dp833
I-1
(dp834
S'1.0'
p835
(dp836
I1
(dp837
S'1.0'
p838
(dp839
I-1
(dp840
S'1.0'
p841
(dp842
I0
(dp843
S'1.0'
p844
(dp845
I0
(dp846
S'1.0'
p847
(dp848
I2
S'1.0'
p849
sssssssssssssssssssssssssssssssI1
(dp850
S'0.0'
p851
(dp852
I0
(dp853
S'0.0'
p854
(dp855
I1
(dp856
S'0.0'
p857
(dp858
I0
(dp859
S'0.0'
p860
(dp861
I-1
(dp862
S'0.0'
p863
(dp864
I-1
(dp865
S'0.0'
p866
(dp867
I-1
(dp868
S'0.0'
p869
(dp870
I-2
S'0.0'
p871
sssssssssssssI-1
(dp872
S'0.0'
p873
(dp874
I-1
(dp875
S'0.0'
p876
(dp877
I0
(dp878
S'0.0'
p879
(dp880
I0
S'0.0'
p881
sI-2
(dp882
S'0.0'
p883
(dp884
I0
(dp885
S'0.0'
p886
(dp887
I-2
(dp888
S'0.0'
p889
(dp890
I-1
(dp891
S'0.0'
p892
(dp893
I0
(dp894
S'0.0'
p895
(dp896
I-1
(dp897
S'0.0'
p898
(dp899
I-1
(dp900
S'0.0'
p901
(dp902
I1
(dp903
S'0.0'
p904
(dp905
I-1
S'0.0'
p906
sssssssssssssssssssssssssI-2
(dp907
S'0.0'
p908
(dp909
I-1
(dp910
S'0.0'
p911
(dp912
I0
S'0.0'
p913
sI-1
(dp914
S'0.0'
p915
(dp916
I0
(dp917
S'0.0'
p918
(dp919
I-2
S'0.0'
p920
sssssssssI-1
(dp921
S'0.17'
p922
(dp923
I0
S'0.0'
p924
sI-2
(dp925
S'0.5'
p926
(dp927
I0
(dp928
S'1.0'
p929
(dp930
I-1
(dp931
S'1.0'
p932
(dp933
I0
(dp934
S'1.0'
p935
(dp936
I2
(dp937
S'1.0'
p938
(dp939
I-1
(dp940
S'1.0'
p941
(dp942
I0
(dp943
S'1.0'
p944
(dp945
I1
S'1.0'
p946
sssssssssssssI-1
(dp947
S'0.0'
p948
(dp949
I0
(dp950
S'0.0'
p951
(dp952
I-1
(dp953
S'0.0'
p954
(dp955
I-1
(dp956
S'0.0'
p957
(dp958
I0
(dp959
S'0.0'
p960
(dp961
I-2
(dp962
S'0.0'
p963
(dp964
I-1
S'0.0'
p965
sssssssssssssssI-1
(dp966
S'0.0'
p967
(dp968
I0
S'0.0'
p969
sI-2
(dp970
S'0.0'
p971
(dp972
I-1
S'0.0'
p973
sssssssssssI1
(dp974
S'0.19'
p975
(dp976
I0
(dp977
S'0.15'
p978
(dp979
I0
(dp980
S'0.2'
p981
(dp982
I0
S'0.07'
p983
sI1
(dp984
S'0.6'
p985
(dp986
I0
(dp987
S'1.0'
p988
(dp989
I2
S'1.0'
p990
sI-2
(dp991
S'1.0'
p992
(dp993
I0
(dp994
S'1.0'
p995
(dp996
I1
(dp997
S'1.0'
p998
(dp999
I0
(dp1000
S'1.0'
p1001
(dp1002
I1
(dp1003
S'1.0'
p1004
(dp1005
I-2
(dp1006
S'1.0'
p1007
(dp1008
I0
(dp1009
S'1.0'
p1010
(dp1011
I1
(dp1012
S'1.0'
p1013
(dp1014
I0
(dp1015
S'1.0'
p1016
(dp1017
I1
S'1.0'
p1018
sssssssssssssssssssssI1
S'0.5'
p1019
sI-1
(dp1020
S'0.0'
p1021
(dp1022
I0
(dp1023
S'0.0'
p1024
(dp1025
I-2
(dp1026
S'0.0'
p1027
(dp1028
I-2
S'0.0'
p1029
sssssssssI2
S'1.0'
p1030
sI-1
(dp1031
S'0.29'
p1032
(dp1033
I0
(dp1034
S'0.33'
p1035
(dp1036
I0
S'0.0'
p1037
sI1
(dp1038
S'1.0'
p1039
(dp1040
I2
S'1.0'
p1041
sssssI-1
(dp1042
S'0.33'
p1043
(dp1044
I1
(dp1045
S'0.5'
p1046
(dp1047
I1
S'1.0'
p1048
sI-1
(dp1049
S'0.0'
p1050
(dp1051
I-1
(dp1052
S'0.0'
p1053
(dp1054
I-2
(dp1055
S'0.0'
p1056
(dp1057
I0
(dp1058
S'0.0'
p1059
(dp1060
I-2
S'0.0'
p1061
sssssssssssI-1
(dp1062
S'0.0'
p1063
(dp1064
I-2
(dp1065
S'0.0'
p1066
(dp1067
I-2
S'0.0'
p1068
sssssssI-2
(dp1069
S'0.0'
p1070
(dp1071
I-2
(dp1072
S'0.0'
p1073
(dp1074
I0
(dp1075
S'0.0'
p1076
(dp1077
I-1
(dp1078
S'0.0'
p1079
(dp1080
I-2
(dp1081
S'0.0'
p1082
(dp1083
I-1
S'0.0'
p1084
sssssssssssssssI1
(dp1085
S'0.21'
p1086
(dp1087
I0
(dp1088
S'0.27'
p1089
(dp1090
I0
(dp1091
S'0.5'
p1092
(dp1093
I0
S'0.0'
p1094
sI2
S'1.0'
p1095
sI-1
(dp1096
S'1.0'
p1097
(dp1098
I1
(dp1099
S'1.0'
p1100
(dp1101
I-2
(dp1102
S'1.0'
p1103
(dp1104
I0
(dp1105
S'1.0'
p1106
(dp1107
I-2
(dp1108
S'1.0'
p1109
(dp1110
I-1
(dp1111
S'1.0'
p1112
(dp1113
I0
(dp1114
S'1.0'
p1115
(dp1116
I-1
(dp1117
S'1.0'
p1118
(dp1119
I1
S'1.0'
p1120
sssssssssssssssI-1
(dp1121
S'1.0'
p1122
(dp1123
I-1
(dp1124
S'1.0'
p1125
(dp1126
I1
(dp1127
S'1.0'
p1128
(dp1129
I1
S'1.0'
p1130
sssssssssssI1
S'0.0'
p1131
sI-1
(dp1132
S'0.0'
p1133
(dp1134
I1
S'0.0'
p1135
sI-1
(dp1136
S'0.0'
p1137
(dp1138
I-1
S'0.0'
p1139
sssssI-2
(dp1140
S'0.0'
p1141
(dp1142
I0
S'0.0'
p1143
sI-1
(dp1144
S'0.0'
p1145
(dp1146
I-1
S'0.0'
p1147
sssssssI-1
(dp1148
S'0.13'
p1149
(dp1150
I0
S'0.25'
p1151
sI-1
(dp1152
S'0.0'
p1153
(dp1154
I0
(dp1155
S'0.0'
p1156
(dp1157
I0
S'0.0'
p1158
sI1
(dp1159
S'0.0'
p1160
(dp1161
I0
(dp1162
S'0.0'
p1163
(dp1164
I-2
S'0.0'
p1165
sssssssI-1
(dp1166
S'0.0'
p1167
(dp1168
I-1
(dp1169
S'0.0'
p1170
(dp1171
I-1
(dp1172
S'0.0'
p1173
(dp1174
I-1
(dp1175
S'0.0'
p1176
(dp1177
I-1
(dp1178
S'0.0'
p1179
(dp1180
I-1
S'0.0'
p1181
sssssssssssssssssI-2
(dp1182
S'0.0'
p1183
(dp1184
I0
(dp1185
S'0.0'
p1186
(dp1187
I0
S'0.0'
p1188
sI1
(dp1189
S'0.0'
p1190
(dp1191
I-1
(dp1192
S'0.0'
p1193
(dp1194
I-1
(dp1195
S'0.0'
p1196
(dp1197
I0
(dp1198
S'0.0'
p1199
(dp1200
I0
(dp1201
S'0.0'
p1202
(dp1203
I2
(dp1204
S'0.0'
p1205
(dp1206
I-1
S'0.0'
p1207
sssssssssssssI-1
(dp1208
S'0.0'
p1209
(dp1210
I-2
S'0.0'
p1211
sssssI-1
(dp1212
S'0.0'
p1213
(dp1214
I0
(dp1215
S'0.0'
p1216
(dp1217
I0
S'0.0'
p1218
sI1
(dp1219
S'0.0'
p1220
(dp1221
I-1
S'0.0'
p1222
sssssI-1
(dp1223
S'0.0'
p1224
(dp1225
I0
S'0.0'
p1226
sI-1
S'0.0'
p1227
sssssssI-1
(dp1228
S'0.0'
p1229
(dp1230
I0
S'0.0'
p1231
sI1
(dp1232
S'0.0'
p1233
(dp1234
I0
(dp1235
S'0.0'
p1236
(dp1237
I0
(dp1238
S'0.0'
p1239
(dp1240
I1
(dp1241
S'0.0'
p1242
(dp1243
I0
(dp1244
S'0.0'
p1245
(dp1246
I-1
(dp1247
S'0.0'
p1248
(dp1249
I-1
(dp1250
S'0.0'
p1251
(dp1252
I-1
(dp1253
S'0.0'
p1254
(dp1255
I1
(dp1256
S'0.0'
p1257
(dp1258
I-1
(dp1259
S'0.0'
p1260
(dp1261
I-2
(dp1262
S'0.0'
p1263
(dp1264
I-1
(dp1265
S'0.0'
p1266
(dp1267
I0
(dp1268
S'0.0'
p1269
(dp1270
I-2
(dp1271
S'0.0'
p1272
(dp1273
I-1
(dp1274
S'0.0'
p1275
(dp1276
I0
(dp1277
S'0.0'
p1278
(dp1279
I-2
(dp1280
S'0.0'
p1281
(dp1282
I-1
S'0.0'
p1283
sssssssssssssssssssssssssssssssssssI-1
(dp1284
S'0.0'
p1285
(dp1286
I1
S'0.0'
p1287
sssI-2
S'0.0'
p1288
sssssI-1
(dp1289
S'0.22'
p1290
(dp1291
I0
(dp1292
S'0.28'
p1293
(dp1294
I0
(dp1295
S'0.15'
p1296
(dp1297
I0
S'0.0'
p1298
sI1
S'0.0'
p1299
sI2
(dp1300
S'0.67'
p1301
(dp1302
I0
S'1.0'
p1303
sI-1
(dp1304
S'0.0'
p1305
(dp1306
I0
(dp1307
S'0.0'
p1308
(dp1309
I-1
(dp1310
S'0.0'
p1311
(dp1312
I-2
(dp1313
S'0.0'
p1314
(dp1315
I0
(dp1316
S'0.0'
p1317
(dp1318
I0
(dp1319
S'0.0'
p1320
(dp1321
I-2
(dp1322
S'0.0'
p1323
(dp1324
I-2
(dp1325
S'0.0'
p1326
(dp1327
I-1
(dp1328
S'0.0'
p1329
(dp1330
I-1
(dp1331
S'0.0'
p1332
(dp1333
I0
(dp1334
S'0.0'
p1335
(dp1336
I-1
(dp1337
S'0.0'
p1338
(dp1339
I-1
(dp1340
S'0.0'
p1341
(dp1342
I-2
S'0.0'
p1343
sssssssssssssssssssssssssssssI-1
(dp1344
S'0.67'
p1345
(dp1346
I2
(dp1347
S'0.67'
p1348
(dp1349
I0
(dp1350
S'1.0'
p1351
(dp1352
I0
(dp1353
S'1.0'
p1354
(dp1355
I-2
(dp1356
S'1.0'
p1357
(dp1358
I1
(dp1359
S'1.0'
p1360
(dp1361
I-1
(dp1362
S'1.0'
p1363
(dp1364
I0
(dp1365
S'1.0'
p1366
(dp1367
I0
(dp1368
S'1.0'
p1369
(dp1370
I2
S'1.0'
p1371
sssssssssssssssI-1
(dp1372
S'0.5'
p1373
(dp1374
I0
(dp1375
S'1.0'
p1376
(dp1377
I0
(dp1378
S'1.0'
p1379
(dp1380
I2
S'1.0'
p1381
sssssI-1
(dp1382
S'0.0'
p1383
(dp1384
I-1
S'0.0'
p1385
sssssssssI-2
(dp1386
S'0.5'
p1387
(dp1388
I1
(dp1389
S'0.0'
p1390
(dp1391
I-1
(dp1392
S'0.0'
p1393
(dp1394
I-1
(dp1395
S'0.0'
p1396
(dp1397
I0
(dp1398
S'0.0'
p1399
(dp1400
I-1
(dp1401
S'0.0'
p1402
(dp1403
I0
(dp1404
S'0.0'
p1405
(dp1406
I-2
S'0.0'
p1407
sssssssssssssI-1
(dp1408
S'1.0'
p1409
(dp1410
I0
(dp1411
S'1.0'
p1412
(dp1413
I1
(dp1414
S'1.0'
p1415
(dp1416
I1
S'1.0'
p1417
sssssssssssI1
(dp1418
S'0.36'
p1419
(dp1420
I0
(dp1421
S'0.44'
p1422
(dp1423
I0
S'0.33'
p1424
sI-1
(dp1425
S'0.67'
p1426
(dp1427
I0
(dp1428
S'1.0'
p1429
(dp1430
I0
(dp1431
S'1.0'
p1432
(dp1433
I1
(dp1434
S'1.0'
p1435
(dp1436
I-1
(dp1437
S'1.0'
p1438
(dp1439
I1
(dp1440
S'1.0'
p1441
(dp1442
I0
(dp1443
S'1.0'
p1444
(dp1445
I-1
(dp1446
S'1.0'
p1447
(dp1448
I1
(dp1449
S'1.0'
p1450
(dp1451
I1
(dp1452
S'1.0'
p1453
(dp1454
I-1
(dp1455
S'1.0'
p1456
(dp1457
I-1
(dp1458
S'1.0'
p1459
(dp1460
I-1
(dp1461
S'1.0'
p1462
(dp1463
I0
(dp1464
S'1.0'
p1465
(dp1466
I1
S'1.0'
p1467
sssssssssssssssssssssssssI-2
(dp1468
S'1.0'
p1469
(dp1470
I0
(dp1471
S'1.0'
p1472
(dp1473
I0
(dp1474
S'1.0'
p1475
(dp1476
I2
S'1.0'
p1477
sssssssssI-1
(dp1478
S'0.0'
p1479
(dp1480
I1
(dp1481
S'0.0'
p1482
(dp1483
I0
(dp1484
S'0.0'
p1485
(dp1486
I-2
(dp1487
S'0.0'
p1488
(dp1489
I-1
(dp1490
S'0.0'
p1491
(dp1492
I-1
S'0.0'
p1493
sssssssssssssssI-1
(dp1494
S'0.0'
p1495
(dp1496
I0
(dp1497
S'0.0'
p1498
(dp1499
I-2
(dp1500
S'0.0'
p1501
(dp1502
I0
(dp1503
S'0.0'
p1504
(dp1505
I-2
S'0.0'
p1506
sssssssI-1
(dp1507
S'0.0'
p1508
(dp1509
I0
(dp1510
S'0.0'
p1511
(dp1512
I-1
(dp1513
S'0.0'
p1514
(dp1515
I-2
(dp1516
S'0.0'
p1517
(dp1518
I0
(dp1519
S'0.0'
p1520
(dp1521
I-1
(dp1522
S'0.0'
p1523
(dp1524
I0
(dp1525
S'0.0'
p1526
(dp1527
I-2
(dp1528
S'0.0'
p1529
(dp1530
I1
(dp1531
S'0.0'
p1532
(dp1533
I-1
(dp1534
S'0.0'
p1535
(dp1536
I0
(dp1537
S'0.0'
p1538
(dp1539
I-2
(dp1540
S'0.0'
p1541
(dp1542
I-1
(dp1543
S'0.0'
p1544
(dp1545
I0
(dp1546
S'0.0'
p1547
(dp1548
I-2
(dp1549
S'0.0'
p1550
(dp1551
I-1
(dp1552
S'0.0'
p1553
(dp1554
I-1
S'0.0'
p1555
sssssssssssssssssssssssssssssssssssssI-2
(dp1556
S'0.29'
p1557
(dp1558
I0
(dp1559
S'0.5'
p1560
(dp1561
I1
(dp1562
S'0.5'
p1563
(dp1564
I0
(dp1565
S'0.5'
p1566
(dp1567
I0
S'1.0'
p1568
sI1
(dp1569
S'0.0'
p1570
(dp1571
I-1
(dp1572
S'0.0'
p1573
(dp1574
I-1
(dp1575
S'0.0'
p1576
(dp1577
I-1
(dp1578
S'0.0'
p1579
(dp1580
I-1
(dp1581
S'0.0'
p1582
(dp1583
I-1
(dp1584
S'0.0'
p1585
(dp1586
I-1
S'0.0'
p1587
sssssssssssssssssssI-1
(dp1588
S'0.2'
p1589
(dp1590
I0
S'0.0'
p1591
sI-1
(dp1592
S'0.33'
p1593
(dp1594
I0
(dp1595
S'1.0'
p1596
(dp1597
I1
(dp1598
S'1.0'
p1599
(dp1600
I0
(dp1601
S'1.0'
p1602
(dp1603
I-1
(dp1604
S'1.0'
p1605
(dp1606
I-1
(dp1607
S'1.0'
p1608
(dp1609
I-2
(dp1610
S'1.0'
p1611
(dp1612
I-1
(dp1613
S'1.0'
p1614
(dp1615
I-1
(dp1616
S'1.0'
p1617
(dp1618
I-1
(dp1619
S'1.0'
p1620
(dp1621
I0
(dp1622
S'1.0'
p1623
(dp1624
I-1
(dp1625
S'1.0'
p1626
(dp1627
I-2
(dp1628
S'1.0'
p1629
(dp1630
I0
(dp1631
S'1.0'
p1632
(dp1633
I1
S'1.0'
p1634
sssssssssssssssssssssssssssI-1
(dp1635
S'0.0'
p1636
(dp1637
I0
S'0.0'
p1638
sI-1
(dp1639
S'0.0'
p1640
(dp1641
I0
(dp1642
S'0.0'
p1643
(dp1644
I-2
(dp1645
S'0.0'
p1646
(dp1647
I0
(dp1648
S'0.0'
p1649
(dp1650
I0
(dp1651
S'0.0'
p1652
(dp1653
I1
S'0.0'
p1654
sssssssssssssssssssI-1
(dp1655
S'0.6'
p1656
(dp1657
I0
(dp1658
S'0.5'
p1659
(dp1660
I-2
(dp1661
S'1.0'
p1662
(dp1663
I0
(dp1664
S'1.0'
p1665
(dp1666
I2
(dp1667
S'1.0'
p1668
(dp1669
I0
(dp1670
S'1.0'
p1671
(dp1672
I-1
(dp1673
S'1.0'
p1674
(dp1675
I0
(dp1676
S'1.0'
p1677
(dp1678
I2
S'1.0'
p1679
sssssssssssssI-1
(dp1680
S'0.0'
p1681
(dp1682
I0
(dp1683
S'0.0'
p1684
(dp1685
I-2
(dp1686
S'0.0'
p1687
(dp1688
I-1
(dp1689
S'0.0'
p1690
(dp1691
I-1
(dp1692
S'0.0'
p1693
(dp1694
I0
(dp1695
S'0.0'
p1696
(dp1697
I2
S'0.0'
p1698
sssssssssssssssI-1
(dp1699
S'0.5'
p1700
(dp1701
I0
(dp1702
S'1.0'
p1703
(dp1704
I2
(dp1705
S'1.0'
p1706
(dp1707
I0
(dp1708
S'1.0'
p1709
(dp1710
I1
S'1.0'
p1711
sssssssI1
(dp1712
S'0.0'
p1713
(dp1714
I0
(dp1715
S'0.0'
p1716
(dp1717
I-2
(dp1718
S'0.0'
p1719
(dp1720
I-1
S'0.0'
p1721
sssssssI-2
(dp1722
S'0.0'
p1723
(dp1724
I-1
S'0.0'
p1725
sssI-1
(dp1726
S'0.67'
p1727
(dp1728
I1
(dp1729
S'0.5'
p1730
(dp1731
I0
(dp1732
S'0.5'
p1733
(dp1734
I0
S'1.0'
p1735
sI-2
(dp1736
S'0.0'
p1737
(dp1738
I-1
(dp1739
S'0.0'
p1740
(dp1741
I-1
S'0.0'
p1742
sssssssssI-1
(dp1743
S'1.0'
p1744
(dp1745
I-2
(dp1746
S'1.0'
p1747
(dp1748
I-1
(dp1749
S'1.0'
p1750
(dp1751
I0
(dp1752
S'1.0'
p1753
(dp1754
I-2
(dp1755
S'1.0'
p1756
(dp1757
I0
(dp1758
S'1.0'
p1759
(dp1760
I1
S'1.0'
p1761
sssssssssssssssssI-2
(dp1762
S'1.0'
p1763
(dp1764
I0
(dp1765
S'1.0'
p1766
(dp1767
I0
(dp1768
S'1.0'
p1769
(dp1770
I-1
(dp1771
S'1.0'
p1772
(dp1773
I-2
(dp1774
S'1.0'
p1775
(dp1776
I0
(dp1777
S'1.0'
p1778
(dp1779
I2
S'1.0'
p1780
sssssssssssI-1
(dp1781
S'1.0'
p1782
(dp1783
I-1
(dp1784
S'1.0'
p1785
(dp1786
I0
(dp1787
S'1.0'
p1788
(dp1789
I1
(dp1790
S'1.0'
p1791
(dp1792
I-1
(dp1793
S'1.0'
p1794
(dp1795
I-1
(dp1796
S'1.0'
p1797
(dp1798
I-1
(dp1799
S'1.0'
p1800
(dp1801
I0
(dp1802
S'1.0'
p1803
(dp1804
I-1
(dp1805
S'1.0'
p1806
(dp1807
I1
S'1.0'
p1808
sssssssssssssssssssssssssI-1
(dp1809
S'0.14'
p1810
(dp1811
I0
(dp1812
S'0.14'
p1813
(dp1814
I0
S'0.13'
p1815
sI1
(dp1816
S'0.25'
p1817
(dp1818
I0
(dp1819
S'0.33'
p1820
(dp1821
I0
S'0.0'
p1822
sI1
S'0.0'
p1823
sI-1
(dp1824
S'1.0'
p1825
(dp1826
I0
(dp1827
S'1.0'
p1828
(dp1829
I0
(dp1830
S'1.0'
p1831
(dp1832
I0
(dp1833
S'1.0'
p1834
(dp1835
I1
(dp1836
S'1.0'
p1837
(dp1838
I-1
(dp1839
S'1.0'
p1840
(dp1841
I-2
(dp1842
S'1.0'
p1843
(dp1844
I1
S'1.0'
p1845
sssssssssssssssssI-1
(dp1846
S'0.0'
p1847
(dp1848
I0
(dp1849
S'0.0'
p1850
(dp1851
I-2
(dp1852
S'0.0'
p1853
(dp1854
I-1
S'0.0'
p1855
sssssssssI-1
(dp1856
S'0.17'
p1857
(dp1858
I0
S'0.0'
p1859
sI1
(dp1860
S'0.0'
p1861
(dp1862
I0
S'0.0'
p1863
sI-1
(dp1864
S'0.0'
p1865
(dp1866
I-1
S'0.0'
p1867
sssssI-2
(dp1868
S'0.5'
p1869
(dp1870
I0
(dp1871
S'0.5'
p1872
(dp1873
I0
S'0.0'
p1874
sI-2
(dp1875
S'1.0'
p1876
(dp1877
I-1
(dp1878
S'1.0'
p1879
(dp1880
I-1
(dp1881
S'1.0'
p1882
(dp1883
I-1
(dp1884
S'1.0'
p1885
(dp1886
I-1
(dp1887
S'1.0'
p1888
(dp1889
I-1
(dp1890
S'1.0'
p1891
(dp1892
I-1
(dp1893
S'1.0'
p1894
(dp1895
I-1
(dp1896
S'1.0'
p1897
(dp1898
I-1
(dp1899
S'1.0'
p1900
(dp1901
I-1
(dp1902
S'1.0'
p1903
(dp1904
I-1
(dp1905
S'1.0'
p1906
(dp1907
I0
(dp1908
S'1.0'
p1909
(dp1910
I1
(dp1911
S'1.0'
p1912
(dp1913
I-1
(dp1914
S'1.0'
p1915
(dp1916
I0
(dp1917
S'1.0'
p1918
(dp1919
I-2
(dp1920
S'1.0'
p1921
(dp1922
I-1
(dp1923
S'1.0'
p1924
(dp1925
I0
(dp1926
S'1.0'
p1927
(dp1928
I1
(dp1929
S'1.0'
p1930
(dp1931
I0
(dp1932
S'1.0'
p1933
(dp1934
I-1
(dp1935
S'1.0'
p1936
(dp1937
I1
S'1.0'
p1938
sssssssssssssssssssssssssssssssssssssssssssssssssI-2
(dp1939
S'0.0'
p1940
(dp1941
I0
(dp1942
S'0.0'
p1943
(dp1944
I1
(dp1945
S'0.0'
p1946
(dp1947
I-1
(dp1948
S'0.0'
p1949
(dp1950
I-1
(dp1951
S'0.0'
p1952
(dp1953
I-1
(dp1954
S'0.0'
p1955
(dp1956
I-1
(dp1957
S'0.0'
p1958
(dp1959
I0
(dp1960
S'0.0'
p1961
(dp1962
I-1
(dp1963
S'0.0'
p1964
(dp1965
I1
(dp1966
S'0.0'
p1967
(dp1968
I-1
S'0.0'
p1969
sssssssssssssssssssI-1
(dp1970
S'0.0'
p1971
(dp1972
I0
(dp1973
S'0.0'
p1974
(dp1975
I-1
(dp1976
S'0.0'
p1977
(dp1978
I-2
(dp1979
S'0.0'
p1980
(dp1981
I-1
S'0.0'
p1982
sssssssI-1
(dp1983
S'0.0'
p1984
(dp1985
I0
(dp1986
S'0.0'
p1987
(dp1988
I-1
(dp1989
S'0.0'
p1990
(dp1991
I-2
(dp1992
S'0.0'
p1993
(dp1994
I-1
(dp1995
S'0.0'
p1996
(dp1997
I-1
(dp1998
S'0.0'
p1999
(dp2000
I-1
S'0.0'
p2001
sssssssssssssssssssI-1
(dp2002
S'0.15'
p2003
(dp2004
I0
(dp2005
S'0.2'
p2006
(dp2007
I0
S'0.0'
p2008
sI1
(dp2009
S'0.0'
p2010
(dp2011
I-1
(dp2012
S'0.0'
p2013
(dp2014
I-1
(dp2015
S'0.0'
p2016
(dp2017
I-1
(dp2018
S'0.0'
p2019
(dp2020
I0
(dp2021
S'0.0'
p2022
(dp2023
I0
(dp2024
S'0.0'
p2025
(dp2026
I-1
S'0.0'
p2027
sssssssssssssI-1
(dp2028
S'0.0'
p2029
(dp2030
I-1
(dp2031
S'0.0'
p2032
(dp2033
I-1
(dp2034
S'0.0'
p2035
(dp2036
I-1
S'0.0'
p2037
sssssssI-2
(dp2038
S'1.0'
p2039
(dp2040
I-1
(dp2041
S'1.0'
p2042
(dp2043
I0
(dp2044
S'1.0'
p2045
(dp2046
I-2
(dp2047
S'1.0'
p2048
(dp2049
I-1
(dp2050
S'1.0'
p2051
(dp2052
I-1
(dp2053
S'1.0'
p2054
(dp2055
I-1
(dp2056
S'1.0'
p2057
(dp2058
I-1
(dp2059
S'1.0'
p2060
(dp2061
I0
(dp2062
S'1.0'
p2063
(dp2064
I-1
(dp2065
S'1.0'
p2066
(dp2067
I1
S'1.0'
p2068
sssssssssssssssssssssssI-1
(dp2069
S'0.13'
p2070
(dp2071
I0
S'0.13'
p2072
sI-1
(dp2073
S'0.14'
p2074
(dp2075
I0
(dp2076
S'0.0'
p2077
(dp2078
I0
S'0.0'
p2079
sI-2
(dp2080
S'0.0'
p2081
(dp2082
I-1
(dp2083
S'0.0'
p2084
(dp2085
I0
(dp2086
S'0.0'
p2087
(dp2088
I-1
(dp2089
S'0.0'
p2090
(dp2091
I0
(dp2092
S'0.0'
p2093
(dp2094
I-2
(dp2095
S'0.0'
p2096
(dp2097
I-2
(dp2098
S'0.0'
p2099
(dp2100
I-1
(dp2101
S'0.0'
p2102
(dp2103
I0
(dp2104
S'0.0'
p2105
(dp2106
I-1
(dp2107
S'0.0'
p2108
(dp2109
I-2
(dp2110
S'0.0'
p2111
(dp2112
I-1
(dp2113
S'0.0'
p2114
(dp2115
I0
(dp2116
S'0.0'
p2117
(dp2118
I-1
(dp2119
S'0.0'
p2120
(dp2121
I-1
(dp2122
S'0.0'
p2123
(dp2124
I-1
(dp2125
S'0.0'
p2126
(dp2127
I-2
(dp2128
S'0.0'
p2129
(dp2130
I-1
S'0.0'
p2131
sssssssssssssssssssssssssssssssssssssI-1
(dp2132
S'0.2'
p2133
(dp2134
I0
S'0.0'
p2135
sI-1
(dp2136
S'0.25'
p2137
(dp2138
I0
S'0.0'
p2139
sI-1
(dp2140
S'0.5'
p2141
(dp2142
I0
(dp2143
S'1.0'
p2144
(dp2145
I1
(dp2146
S'1.0'
p2147
(dp2148
I-1
(dp2149
S'1.0'
p2150
(dp2151
I0
(dp2152
S'1.0'
p2153
(dp2154
I-2
(dp2155
S'1.0'
p2156
(dp2157
I-1
(dp2158
S'1.0'
p2159
(dp2160
I0
(dp2161
S'1.0'
p2162
(dp2163
I1
S'1.0'
p2164
sssssssssssssssI-1
S'0.0'
p2165
sssssssssssssssssssI-1
(dp2166
S'0.23'
p2167
(dp2168
I0
(dp2169
S'0.17'
p2170
(dp2171
I0
S'0.0'
p2172
sI1
(dp2173
S'0.0'
p2174
(dp2175
I0
(dp2176
S'0.0'
p2177
(dp2178
I-1
(dp2179
S'0.0'
p2180
(dp2181
I2
(dp2182
S'0.0'
p2183
(dp2184
I-1
S'0.0'
p2185
sssssssssI2
S'1.0'
p2186
sI-1
(dp2187
S'0.4'
p2188
(dp2189
I0
S'0.0'
p2190
sI1
(dp2191
S'0.4'
p2192
(dp2193
I0
(dp2194
S'1.0'
p2195
(dp2196
I2
S'1.0'
p2197
sI-2
(dp2198
S'1.0'
p2199
(dp2200
I-2
(dp2201
S'1.0'
p2202
(dp2203
I-1
(dp2204
S'1.0'
p2205
(dp2206
I-1
(dp2207
S'1.0'
p2208
(dp2209
I-1
(dp2210
S'1.0'
p2211
(dp2212
I0
(dp2213
S'1.0'
p2214
(dp2215
I1
(dp2216
S'1.0'
p2217
(dp2218
I-1
(dp2219
S'1.0'
p2220
(dp2221
I0
(dp2222
S'1.0'
p2223
(dp2224
I0
(dp2225
S'1.0'
p2226
(dp2227
I1
S'1.0'
p2228
sssssssssssssssssssssssI1
(dp2229
S'0.0'
p2230
(dp2231
I0
(dp2232
S'0.0'
p2233
(dp2234
I-2
(dp2235
S'0.0'
p2236
(dp2237
I-1
(dp2238
S'0.0'
p2239
(dp2240
I-1
(dp2241
S'0.0'
p2242
(dp2243
I0
(dp2244
S'0.0'
p2245
(dp2246
I-2
(dp2247
S'0.0'
p2248
(dp2249
I-1
(dp2250
S'0.0'
p2251
(dp2252
I0
(dp2253
S'0.0'
p2254
(dp2255
I1
(dp2256
S'0.0'
p2257
(dp2258
I-1
S'0.0'
p2259
sssssssssssssssssssssI-1
(dp2260
S'0.0'
p2261
(dp2262
I0
(dp2263
S'0.0'
p2264
(dp2265
I1
(dp2266
S'0.0'
p2267
(dp2268
I1
(dp2269
S'0.0'
p2270
(dp2271
I-1
S'0.0'
p2272
sssssssssI-2
(dp2273
S'0.0'
p2274
(dp2275
I-1
(dp2276
S'0.0'
p2277
(dp2278
I-1
(dp2279
S'0.0'
p2280
(dp2281
I-1
S'0.0'
p2282
sssssssssI-2
(dp2283
S'0.67'
p2284
(dp2285
I0
S'0.0'
p2286
sI-1
(dp2287
S'1.0'
p2288
(dp2289
I1
(dp2290
S'1.0'
p2291
(dp2292
I-1
(dp2293
S'1.0'
p2294
(dp2295
I-1
(dp2296
S'1.0'
p2297
(dp2298
I-1
(dp2299
S'1.0'
p2300
(dp2301
I-1
(dp2302
S'1.0'
p2303
(dp2304
I0
(dp2305
S'1.0'
p2306
(dp2307
I0
(dp2308
S'1.0'
p2309
(dp2310
I1
S'1.0'
p2311
sssssssssssssssssI-2
(dp2312
S'1.0'
p2313
(dp2314
I0
(dp2315
S'1.0'
p2316
(dp2317
I0
(dp2318
S'1.0'
p2319
(dp2320
I2
S'1.0'
p2321
sssssssssI-1
(dp2322
S'0.0'
p2323
(dp2324
I-1
(dp2325
S'0.0'
p2326
(dp2327
I-1
(dp2328
S'0.0'
p2329
(dp2330
I-1
(dp2331
S'0.0'
p2332
(dp2333
I-2
(dp2334
S'0.0'
p2335
(dp2336
I-2
(dp2337
S'0.0'
p2338
(dp2339
I-1
S'0.0'
p2340
sssssssssssssssI-2
(dp2341
S'0.5'
p2342
(dp2343
I0
S'0.0'
p2344
sI1
(dp2345
S'0.0'
p2346
(dp2347
I-1
S'0.0'
p2348
sssI-1
(dp2349
S'0.75'
p2350
(dp2351
I0
S'0.0'
p2352
sI-2
(dp2353
S'1.0'
p2354
(dp2355
I-1
(dp2356
S'1.0'
p2357
(dp2358
I0
(dp2359
S'1.0'
p2360
(dp2361
I0
(dp2362
S'1.0'
p2363
(dp2364
I2
S'1.0'
p2365
sI-1
(dp2366
S'1.0'
p2367
(dp2368
I0
(dp2369
S'1.0'
p2370
(dp2371
I1
(dp2372
S'1.0'
p2373
(dp2374
I0
(dp2375
S'1.0'
p2376
(dp2377
I0
(dp2378
S'1.0'
p2379
(dp2380
I1
(dp2381
S'1.0'
p2382
(dp2383
I-1
(dp2384
S'1.0'
p2385
(dp2386
I1
S'1.0'
p2387
sssssssssssssssssI1
(dp2388
S'1.0'
p2389
(dp2390
I0
(dp2391
S'1.0'
p2392
(dp2393
I-2
(dp2394
S'1.0'
p2395
(dp2396
I-1
(dp2397
S'1.0'
p2398
(dp2399
I0
(dp2400
S'1.0'
p2401
(dp2402
I-1
(dp2403
S'1.0'
p2404
(dp2405
I1
(dp2406
S'1.0'
p2407
(dp2408
I-1
(dp2409
S'1.0'
p2410
(dp2411
I0
(dp2412
S'1.0'
p2413
(dp2414
I1
(dp2415
S'1.0'
p2416
(dp2417
I-1
(dp2418
S'1.0'
p2419
(dp2420
I-1
(dp2421
S'1.0'
p2422
(dp2423
I0
(dp2424
S'1.0'
p2425
(dp2426
I0
(dp2427
S'1.0'
p2428
(dp2429
I-1
(dp2430
S'1.0'
p2431
(dp2432
I-2
(dp2433
S'1.0'
p2434
(dp2435
I1
(dp2436
S'1.0'
p2437
(dp2438
I-1
(dp2439
S'1.0'
p2440
(dp2441
I-1
(dp2442
S'1.0'
p2443
(dp2444
I0
(dp2445
S'1.0'
p2446
(dp2447
I1
S'1.0'
p2448
sssssssssssssssssssssssssssssssssssssssssssssssssI-2
(dp2449
S'0.5'
p2450
(dp2451
I-1
(dp2452
S'0.5'
p2453
(dp2454
I-1
(dp2455
S'0.5'
p2456
(dp2457
I0
(dp2458
S'1.0'
p2459
(dp2460
I-2
(dp2461
S'1.0'
p2462
(dp2463
I0
(dp2464
S'1.0'
p2465
(dp2466
I0
(dp2467
S'1.0'
p2468
(dp2469
I-2
(dp2470
S'1.0'
p2471
(dp2472
I0
(dp2473
S'1.0'
p2474
(dp2475
I2
(dp2476
S'1.0'
p2477
(dp2478
I-1
(dp2479
S'1.0'
p2480
(dp2481
I-1
(dp2482
S'1.0'
p2483
(dp2484
I0
(dp2485
S'1.0'
p2486
(dp2487
I0
(dp2488
S'1.0'
p2489
(dp2490
I0
(dp2491
S'1.0'
p2492
(dp2493
I0
(dp2494
S'1.0'
p2495
(dp2496
I0
(dp2497
S'1.0'
p2498
(dp2499
I-1
(dp2500
S'1.0'
p2501
(dp2502
I-2
(dp2503
S'1.0'
p2504
(dp2505
I1
(dp2506
S'1.0'
p2507
(dp2508
I2
S'1.0'
p2509
sssssssssssssssssssssssssssssssssssI-1
S'0.0'
p2510
sssssssssssI1
(dp2511
S'0.18'
p2512
(dp2513
I0
(dp2514
S'0.22'
p2515
(dp2516
I0
(dp2517
S'0.19'
p2518
(dp2519
I0
S'0.11'
p2520
sI2
S'1.0'
p2521
sI-2
(dp2522
S'1.0'
p2523
(dp2524
I-2
(dp2525
S'1.0'
p2526
(dp2527
I-1
(dp2528
S'1.0'
p2529
(dp2530
I-1
(dp2531
S'1.0'
p2532
(dp2533
I0
(dp2534
S'1.0'
p2535
(dp2536
I-1
(dp2537
S'1.0'
p2538
(dp2539
I1
(dp2540
S'1.0'
p2541
(dp2542
I0
(dp2543
S'1.0'
p2544
(dp2545
I1
(dp2546
S'1.0'
p2547
(dp2548
I-1
(dp2549
S'1.0'
p2550
(dp2551
I-1
(dp2552
S'1.0'
p2553
(dp2554
I-1
(dp2555
S'1.0'
p2556
(dp2557
I-1
(dp2558
S'1.0'
p2559
(dp2560
I-1
(dp2561
S'1.0'
p2562
(dp2563
I0
(dp2564
S'1.0'
p2565
(dp2566
I-2
(dp2567
S'1.0'
p2568
(dp2569
I0
(dp2570
S'1.0'
p2571
(dp2572
I-1
(dp2573
S'1.0'
p2574
(dp2575
I-2
(dp2576
S'1.0'
p2577
(dp2578
I0
(dp2579
S'1.0'
p2580
(dp2581
I0
(dp2582
S'1.0'
p2583
(dp2584
I2
S'1.0'
p2585
sssssssssssssssssssssssssssssssssssssssssssI-1
S'0.0'
p2586
sssI1
(dp2587
S'0.3'
p2588
(dp2589
I0
S'0.38'
p2590
sI-1
(dp2591
S'0.0'
p2592
(dp2593
I0
(dp2594
S'0.0'
p2595
(dp2596
I-1
(dp2597
S'0.0'
p2598
(dp2599
I0
(dp2600
S'0.0'
p2601
(dp2602
I-1
(dp2603
S'0.0'
p2604
(dp2605
I0
(dp2606
S'0.0'
p2607
(dp2608
I-1
(dp2609
S'0.0'
p2610
(dp2611
I-1
(dp2612
S'0.0'
p2613
(dp2614
I0
(dp2615
S'0.0'
p2616
(dp2617
I1
S'0.0'
p2618
sssssssssssssssssI-1
(dp2619
S'0.0'
p2620
(dp2621
I-1
(dp2622
S'0.0'
p2623
(dp2624
I-1
(dp2625
S'0.0'
p2626
(dp2627
I0
(dp2628
S'0.0'
p2629
(dp2630
I-1
(dp2631
S'0.0'
p2632
(dp2633
I-1
S'0.0'
p2634
sssssssssssssssI-2
(dp2635
S'0.0'
p2636
(dp2637
I0
S'0.0'
p2638
sI-1
S'0.0'
p2639
sssI-1
(dp2640
S'0.29'
p2641
(dp2642
I0
(dp2643
S'0.4'
p2644
(dp2645
I0
S'0.25'
p2646
sI2
(dp2647
S'1.0'
p2648
(dp2649
I0
(dp2650
S'1.0'
p2651
(dp2652
I0
(dp2653
S'1.0'
p2654
(dp2655
I0
(dp2656
S'1.0'
p2657
(dp2658
I-1
(dp2659
S'1.0'
p2660
(dp2661
I2
S'1.0'
p2662
sssssssssssssI-2
(dp2663
S'0.0'
p2664
(dp2665
I-1
(dp2666
S'0.0'
p2667
(dp2668
I0
(dp2669
S'0.0'
p2670
(dp2671
I-2
(dp2672
S'0.0'
p2673
(dp2674
I0
(dp2675
S'0.0'
p2676
(dp2677
I-2
(dp2678
S'0.0'
p2679
(dp2680
I-1
S'0.0'
p2681
sssssssssssssI-1
(dp2682
S'0.0'
p2683
(dp2684
I1
(dp2685
S'0.0'
p2686
(dp2687
I0
(dp2688
S'0.0'
p2689
(dp2690
I-1
(dp2691
S'0.0'
p2692
(dp2693
I-2
S'0.0'
p2694
sssssssssssssI-1
(dp2695
S'0.0'
p2696
(dp2697
I0
(dp2698
S'0.0'
p2699
(dp2700
I0
(dp2701
S'0.0'
p2702
(dp2703
I0
S'0.0'
p2704
sI-2
(dp2705
S'0.0'
p2706
(dp2707
I-1
(dp2708
S'0.0'
p2709
(dp2710
I-2
(dp2711
S'0.0'
p2712
(dp2713
I-1
(dp2714
S'0.0'
p2715
(dp2716
I-1
(dp2717
S'0.0'
p2718
(dp2719
I-1
(dp2720
S'0.0'
p2721
(dp2722
I-1
S'0.0'
p2723
sssssssssssssssI-1
(dp2724
S'0.0'
p2725
(dp2726
I1
(dp2727
S'0.0'
p2728
(dp2729
I0
(dp2730
S'0.0'
p2731
(dp2732
I1
(dp2733
S'0.0'
p2734
(dp2735
I-1
(dp2736
S'0.0'
p2737
(dp2738
I0
(dp2739
S'0.0'
p2740
(dp2741
I-1
(dp2742
S'0.0'
p2743
(dp2744
I-2
(dp2745
S'0.0'
p2746
(dp2747
I-1
S'0.0'
p2748
sssssssssssssssssssI-1
(dp2749
S'0.0'
p2750
(dp2751
I0
(dp2752
S'0.0'
p2753
(dp2754
I-2
(dp2755
S'0.0'
p2756
(dp2757
I-1
S'0.0'
p2758
sssI-1
(dp2759
S'0.0'
p2760
(dp2761
I0
(dp2762
S'0.0'
p2763
(dp2764
I1
(dp2765
S'0.0'
p2766
(dp2767
I-2
(dp2768
S'0.0'
p2769
(dp2770
I-1
(dp2771
S'0.0'
p2772
(dp2773
I-1
(dp2774
S'0.0'
p2775
(dp2776
I0
(dp2777
S'0.0'
p2778
(dp2779
I0
(dp2780
S'0.0'
p2781
(dp2782
I-1
S'0.0'
p2783
sssssssssssssssssssssssssI-2
(dp2784
S'0.29'
p2785
(dp2786
I0
(dp2787
S'0.3'
p2788
(dp2789
I0
S'0.11'
p2790
sI1
(dp2791
S'0.0'
p2792
(dp2793
I-1
(dp2794
S'0.0'
p2795
(dp2796
I-1
(dp2797
S'0.0'
p2798
(dp2799
I-1
(dp2800
S'0.0'
p2801
(dp2802
I0
(dp2803
S'0.0'
p2804
(dp2805
I-1
(dp2806
S'0.0'
p2807
(dp2808
I0
(dp2809
S'0.0'
p2810
(dp2811
I-1
(dp2812
S'0.0'
p2813
(dp2814
I0
(dp2815
S'0.0'
p2816
(dp2817
I-2
(dp2818
S'0.0'
p2819
(dp2820
I1
(dp2821
S'0.0'
p2822
(dp2823
I-1
(dp2824
S'0.0'
p2825
(dp2826
I-1
(dp2827
S'0.0'
p2828
(dp2829
I0
(dp2830
S'0.0'
p2831
(dp2832
I-2
(dp2833
S'0.0'
p2834
(dp2835
I-2
S'0.0'
p2836
sssssssssssssssssssssssssssssssI-1
(dp2837
S'0.45'
p2838
(dp2839
I0
(dp2840
S'0.67'
p2841
(dp2842
I0
(dp2843
S'0.33'
p2844
(dp2845
I0
S'0.0'
p2846
sI1
(dp2847
S'1.0'
p2848
(dp2849
I0
(dp2850
S'1.0'
p2851
(dp2852
I1
(dp2853
S'1.0'
p2854
(dp2855
I0
(dp2856
S'1.0'
p2857
(dp2858
I-2
(dp2859
S'1.0'
p2860
(dp2861
I-2
(dp2862
S'1.0'
p2863
(dp2864
I1
(dp2865
S'1.0'
p2866
(dp2867
I0
(dp2868
S'1.0'
p2869
(dp2870
I0
(dp2871
S'1.0'
p2872
(dp2873
I-1
(dp2874
S'1.0'
p2875
(dp2876
I1
(dp2877
S'1.0'
p2878
(dp2879
I-2
(dp2880
S'1.0'
p2881
(dp2882
I-1
(dp2883
S'1.0'
p2884
(dp2885
I0
(dp2886
S'1.0'
p2887
(dp2888
I-1
(dp2889
S'1.0'
p2890
(dp2891
I1
S'1.0'
p2892
sssssssssssssssssssssssssssssssssI1
(dp2893
S'1.0'
p2894
(dp2895
I0
(dp2896
S'1.0'
p2897
(dp2898
I-2
(dp2899
S'1.0'
p2900
(dp2901
I-1
(dp2902
S'1.0'
p2903
(dp2904
I0
(dp2905
S'1.0'
p2906
(dp2907
I2
S'1.0'
p2908
sssssssssI1
(dp2909
S'1.0'
p2910
(dp2911
I0
(dp2912
S'1.0'
p2913
(dp2914
I0
(dp2915
S'1.0'
p2916
(dp2917
I2
S'1.0'
p2918
sssssssssI2
S'1.0'
p2919
sssI1
(dp2920
S'0.0'
p2921
(dp2922
I0
(dp2923
S'0.0'
p2924
(dp2925
I1
(dp2926
S'0.0'
p2927
(dp2928
I-1
S'0.0'
p2929
sssssssI-1
(dp2930
S'0.0'
p2931
(dp2932
I-2
(dp2933
S'0.0'
p2934
(dp2935
I-1
(dp2936
S'0.0'
p2937
(dp2938
I0
(dp2939
S'0.0'
p2940
(dp2941
I0
(dp2942
S'0.0'
p2943
(dp2944
I-2
(dp2945
S'0.0'
p2946
(dp2947
I1
(dp2948
S'0.0'
p2949
(dp2950
I-1
(dp2951
S'0.0'
p2952
(dp2953
I0
(dp2954
S'0.0'
p2955
(dp2956
I-2
(dp2957
S'0.0'
p2958
(dp2959
I-1
(dp2960
S'0.0'
p2961
(dp2962
I-1
(dp2963
S'0.0'
p2964
(dp2965
I0
(dp2966
S'0.0'
p2967
(dp2968
I-2
(dp2969
S'0.0'
p2970
(dp2971
I0
(dp2972
S'0.0'
p2973
(dp2974
I0
(dp2975
S'0.0'
p2976
(dp2977
I-2
(dp2978
S'0.0'
p2979
(dp2980
I1
(dp2981
S'0.0'
p2982
(dp2983
I-1
(dp2984
S'0.0'
p2985
(dp2986
I-1
(dp2987
S'0.0'
p2988
(dp2989
I-1
(dp2990
S'0.0'
p2991
(dp2992
I0
(dp2993
S'0.0'
p2994
(dp2995
I-2
S'0.0'
p2996
sssssssssssssssssssssssssssssssssssssssssssssI-2
(dp2997
S'0.33'
p2998
(dp2999
I0
(dp3000
S'0.5'
p3001
(dp3002
I0
(dp3003
S'0.0'
p3004
(dp3005
I2
(dp3006
S'0.0'
p3007
(dp3008
I0
(dp3009
S'0.0'
p3010
(dp3011
I1
(dp3012
S'0.0'
p3013
(dp3014
I0
(dp3015
S'0.0'
p3016
(dp3017
I-2
S'0.0'
p3018
sssssssssssI1
(dp3019
S'1.0'
p3020
(dp3021
I0
(dp3022
S'1.0'
p3023
(dp3024
I0
(dp3025
S'1.0'
p3026
(dp3027
I1
(dp3028
S'1.0'
p3029
(dp3030
I0
(dp3031
S'1.0'
p3032
(dp3033
I1
S'1.0'
p3034
sssssssssssssI-1
(dp3035
S'0.0'
p3036
(dp3037
I-1
(dp3038
S'0.0'
p3039
(dp3040
I0
(dp3041
S'0.0'
p3042
(dp3043
I-2
(dp3044
S'0.0'
p3045
(dp3046
I0
(dp3047
S'0.0'
p3048
(dp3049
I-2
S'0.0'
p3050
sssssssssssssssI-2
(dp3051
S'0.33'
p3052
(dp3053
I0
(dp3054
S'0.4'
p3055
(dp3056
I0
S'0.0'
p3057
sI1
S'0.67'
p3058
sI-1
(dp3059
S'0.0'
p3060
(dp3061
I1
(dp3062
S'0.0'
p3063
(dp3064
I0
(dp3065
S'0.0'
p3066
(dp3067
I0
(dp3068
S'0.0'
p3069
(dp3070
I-2
(dp3071
S'0.0'
p3072
(dp3073
I-1
(dp3074
S'0.0'
p3075
(dp3076
I1
(dp3077
S'0.0'
p3078
(dp3079
I0
(dp3080
S'0.0'
p3081
(dp3082
I-1
S'0.0'
p3083
sssssssssssssssssssI-1
(dp3084
S'0.25'
p3085
(dp3086
I0
(dp3087
S'0.5'
p3088
(dp3089
I0
(dp3090
S'0.0'
p3091
(dp3092
I1
(dp3093
S'0.0'
p3094
(dp3095
I-2
(dp3096
S'0.0'
p3097
(dp3098
I0
(dp3099
S'0.0'
p3100
(dp3101
I1
(dp3102
S'0.0'
p3103
(dp3104
I-1
(dp3105
S'0.0'
p3106
(dp3107
I0
(dp3108
S'0.0'
p3109
(dp3110
I1
(dp3111
S'0.0'
p3112
(dp3113
I0
(dp3114
S'0.0'
p3115
(dp3116
I0
(dp3117
S'0.0'
p3118
(dp3119
I-2
(dp3120
S'0.0'
p3121
(dp3122
I1
(dp3123
S'0.0'
p3124
(dp3125
I-1
S'0.0'
p3126
sssssssssssssssssssssssssI1
(dp3127
S'1.0'
p3128
(dp3129
I0
(dp3130
S'1.0'
p3131
(dp3132
I-1
(dp3133
S'1.0'
p3134
(dp3135
I1
(dp3136
S'1.0'
p3137
(dp3138
I-1
(dp3139
S'1.0'
p3140
(dp3141
I-1
(dp3142
S'1.0'
p3143
(dp3144
I0
(dp3145
S'1.0'
p3146
(dp3147
I1
(dp3148
S'1.0'
p3149
(dp3150
I-1
(dp3151
S'1.0'
p3152
(dp3153
I0
(dp3154
S'1.0'
p3155
(dp3156
I-2
(dp3157
S'1.0'
p3158
(dp3159
I-1
(dp3160
S'1.0'
p3161
(dp3162
I-1
(dp3163
S'1.0'
p3164
(dp3165
I0
(dp3166
S'1.0'
p3167
(dp3168
I1
(dp3169
S'1.0'
p3170
(dp3171
I-1
(dp3172
S'1.0'
p3173
(dp3174
I-1
(dp3175
S'1.0'
p3176
(dp3177
I0
(dp3178
S'1.0'
p3179
(dp3180
I0
(dp3181
S'1.0'
p3182
(dp3183
I0
(dp3184
S'1.0'
p3185
(dp3186
I-2
(dp3187
S'1.0'
p3188
(dp3189
I2
S'1.0'
p3190
sssssssssssssssssssssssssssssssssssssssssssssI-1
(dp3191
S'0.0'
p3192
(dp3193
I0
S'0.0'
p3194
sI-1
(dp3195
S'0.0'
p3196
(dp3197
I-1
(dp3198
S'0.0'
p3199
(dp3200
I0
(dp3201
S'0.0'
p3202
(dp3203
I1
(dp3204
S'0.0'
p3205
(dp3206
I0
(dp3207
S'0.0'
p3208
(dp3209
I-2
(dp3210
S'0.0'
p3211
(dp3212
I-1
(dp3213
S'0.0'
p3214
(dp3215
I0
(dp3216
S'0.0'
p3217
(dp3218
I-2
S'0.0'
p3219
sssssssssssssssssssssssssI-1
(dp3220
S'0.29'
p3221
(dp3222
I0
(dp3223
S'0.33'
p3224
(dp3225
I0
(dp3226
S'0.17'
p3227
(dp3228
I0
S'0.2'
p3229
sI-2
(dp3230
S'0.0'
p3231
(dp3232
I1
(dp3233
S'0.0'
p3234
(dp3235
I-1
S'0.0'
p3236
sssssssI1
(dp3237
S'0.67'
p3238
(dp3239
I0
(dp3240
S'0.67'
p3241
(dp3242
I0
S'0.5'
p3243
sI-2
(dp3244
S'1.0'
p3245
(dp3246
I-1
(dp3247
S'1.0'
p3248
(dp3249
I-1
(dp3250
S'1.0'
p3251
(dp3252
I0
(dp3253
S'1.0'
p3254
(dp3255
I-1
(dp3256
S'1.0'
p3257
(dp3258
I0
(dp3259
S'1.0'
p3260
(dp3261
I2
S'1.0'
p3262
sssssssssssssssssI-2
(dp3263
S'0.0'
p3264
(dp3265
I0
(dp3266
S'0.0'
p3267
(dp3268
I-1
(dp3269
S'0.0'
p3270
(dp3271
I-2
(dp3272
S'0.0'
p3273
(dp3274
I-1
(dp3275
S'0.0'
p3276
(dp3277
I0
(dp3278
S'0.0'
p3279
(dp3280
I-1
(dp3281
S'0.0'
p3282
(dp3283
I-1
(dp3284
S'0.0'
p3285
(dp3286
I1
(dp3287
S'0.0'
p3288
(dp3289
I-1
(dp3290
S'0.0'
p3291
(dp3292
I0
(dp3293
S'0.0'
p3294
(dp3295
I-1
(dp3296
S'0.0'
p3297
(dp3298
I-1
S'0.0'
p3299
sssssssssssssssssssssssssI-1
(dp3300
S'0.5'
p3301
(dp3302
I0
(dp3303
S'0.0'
p3304
(dp3305
I2
(dp3306
S'0.0'
p3307
(dp3308
I-1
(dp3309
S'0.0'
p3310
(dp3311
I0
(dp3312
S'0.0'
p3313
(dp3314
I-2
(dp3315
S'0.0'
p3316
(dp3317
I-1
S'0.0'
p3318
sssssssssssI1
(dp3319
S'1.0'
p3320
(dp3321
I-1
(dp3322
S'1.0'
p3323
(dp3324
I-1
(dp3325
S'1.0'
p3326
(dp3327
I-1
(dp3328
S'1.0'
p3329
(dp3330
I0
(dp3331
S'1.0'
p3332
(dp3333
I1
S'1.0'
p3334
sssssssssssssssI-1
(dp3335
S'0.22'
p3336
(dp3337
I0
(dp3338
S'0.0'
p3339
(dp3340
I1
(dp3341
S'0.0'
p3342
(dp3343
I0
(dp3344
S'0.0'
p3345
(dp3346
I-2
S'0.0'
p3347
sssI-1
(dp3348
S'0.0'
p3349
(dp3350
I-1
S'0.0'
p3351
sssssssI-1
(dp3352
S'0.29'
p3353
(dp3354
I0
(dp3355
S'0.33'
p3356
(dp3357
I0
S'0.0'
p3358
sI1
(dp3359
S'0.0'
p3360
(dp3361
I0
(dp3362
S'0.0'
p3363
(dp3364
I-1
(dp3365
S'0.0'
p3366
(dp3367
I1
(dp3368
S'0.0'
p3369
(dp3370
I-1
(dp3371
S'0.0'
p3372
(dp3373
I-1
(dp3374
S'0.0'
p3375
(dp3376
I-1
(dp3377
S'0.0'
p3378
(dp3379
I0
(dp3380
S'0.0'
p3381
(dp3382
I-1
(dp3383
S'0.0'
p3384
(dp3385
I-1
(dp3386
S'0.0'
p3387
(dp3388
I0
(dp3389
S'0.0'
p3390
(dp3391
I-2
(dp3392
S'0.0'
p3393
(dp3394
I1
S'0.0'
p3395
sssssssssssssssssssssssssI-2
(dp3396
S'0.67'
p3397
(dp3398
I0
(dp3399
S'0.67'
p3400
(dp3401
I1
(dp3402
S'0.5'
p3403
(dp3404
I0
(dp3405
S'0.5'
p3406
(dp3407
I-1
(dp3408
S'0.5'
p3409
(dp3410
I0
(dp3411
S'1.0'
p3412
(dp3413
I1
S'1.0'
p3414
sssI-1
(dp3415
S'0.0'
p3416
(dp3417
I-1
(dp3418
S'0.0'
p3419
(dp3420
I-2
(dp3421
S'0.0'
p3422
(dp3423
I-1
(dp3424
S'0.0'
p3425
(dp3426
I0
(dp3427
S'0.0'
p3428
(dp3429
I-2
(dp3430
S'0.0'
p3431
(dp3432
I-1
(dp3433
S'0.0'
p3434
(dp3435
I0
(dp3436
S'0.0'
p3437
(dp3438
I-2
S'0.0'
p3439
sssssssssssssssssssssssI-2
(dp3440
S'1.0'
p3441
(dp3442
I-1
(dp3443
S'1.0'
p3444
(dp3445
I0
(dp3446
S'1.0'
p3447
(dp3448
I0
(dp3449
S'1.0'
p3450
(dp3451
I-1
(dp3452
S'1.0'
p3453
(dp3454
I2
S'1.0'
p3455
sssssssssssssssssI-1
S'0.0'
p3456
sssssssssI-1
(dp3457
S'0.28'
p3458
(dp3459
I0
(dp3460
S'0.22'
p3461
(dp3462
I0
S'0.0'
p3463
sI1
(dp3464
S'0.0'
p3465
(dp3466
I0
S'0.0'
p3467
sI-2
(dp3468
S'0.0'
p3469
(dp3470
I0
(dp3471
S'0.0'
p3472
(dp3473
I1
S'0.0'
p3474
sssI-1
S'0.0'
p3475
sssssI2
(dp3476
S'0.5'
p3477
(dp3478
I0
(dp3479
S'0.5'
p3480
(dp3481
I0
S'1.0'
p3482
sI-2
(dp3483
S'0.0'
p3484
(dp3485
I-1
(dp3486
S'0.0'
p3487
(dp3488
I-1
S'0.0'
p3489
sssssssssI-1
(dp3490
S'0.4'
p3491
(dp3492
I1
(dp3493
S'0.67'
p3494
(dp3495
I0
(dp3496
S'1.0'
p3497
(dp3498
I-1
(dp3499
S'1.0'
p3500
(dp3501
I2
S'1.0'
p3502
sssssI-1
(dp3503
S'0.5'
p3504
(dp3505
I1
(dp3506
S'1.0'
p3507
(dp3508
I-1
(dp3509
S'1.0'
p3510
(dp3511
I-1
(dp3512
S'1.0'
p3513
(dp3514
I-1
(dp3515
S'1.0'
p3516
(dp3517
I-1
(dp3518
S'1.0'
p3519
(dp3520
I-1
(dp3521
S'1.0'
p3522
(dp3523
I0
(dp3524
S'1.0'
p3525
(dp3526
I0
(dp3527
S'1.0'
p3528
(dp3529
I1
(dp3530
S'1.0'
p3531
(dp3532
I0
(dp3533
S'1.0'
p3534
(dp3535
I0
(dp3536
S'1.0'
p3537
(dp3538
I0
(dp3539
S'1.0'
p3540
(dp3541
I1
S'1.0'
p3542
sssssssssssssssssssssssssI-2
(dp3543
S'0.0'
p3544
(dp3545
I-1
S'0.0'
p3546
sssssssI-1
(dp3547
S'0.0'
p3548
(dp3549
I0
S'0.0'
p3550
sI-2
(dp3551
S'0.0'
p3552
(dp3553
I-1
(dp3554
S'0.0'
p3555
(dp3556
I-1
S'0.0'
p3557
sssssssssI-2
(dp3558
S'0.5'
p3559
(dp3560
I1
(dp3561
S'0.67'
p3562
(dp3563
I0
S'0.0'
p3564
sI-1
(dp3565
S'1.0'
p3566
(dp3567
I-1
(dp3568
S'1.0'
p3569
(dp3570
I0
(dp3571
S'1.0'
p3572
(dp3573
I-2
(dp3574
S'1.0'
p3575
(dp3576
I-1
(dp3577
S'1.0'
p3578
(dp3579
I0
(dp3580
S'1.0'
p3581
(dp3582
I0
(dp3583
S'1.0'
p3584
(dp3585
I2
S'1.0'
p3586
sssssI-1
(dp3587
S'1.0'
p3588
(dp3589
I-1
(dp3590
S'1.0'
p3591
(dp3592
I-1
(dp3593
S'1.0'
p3594
(dp3595
I-1
(dp3596
S'1.0'
p3597
(dp3598
I0
(dp3599
S'1.0'
p3600
(dp3601
I1
(dp3602
S'1.0'
p3603
(dp3604
I-1
(dp3605
S'1.0'
p3606
(dp3607
I0
(dp3608
S'1.0'
p3609
(dp3610
I0
(dp3611
S'1.0'
p3612
(dp3613
I-2
(dp3614
S'1.0'
p3615
(dp3616
I1
(dp3617
S'1.0'
p3618
(dp3619
I0
(dp3620
S'1.0'
p3621
(dp3622
I-1
(dp3623
S'1.0'
p3624
(dp3625
I0
(dp3626
S'1.0'
p3627
(dp3628
I2
S'1.0'
p3629
sssssssssssssssssssssssssssssssssssssssssI-2
S'0.0'
p3630
sssssI1
(dp3631
S'0.38'
p3632
(dp3633
I0
(dp3634
S'0.45'
p3635
(dp3636
I0
S'0.4'
p3637
sI1
S'0.5'
p3638
sI-2
(dp3639
S'0.33'
p3640
(dp3641
I0
(dp3642
S'0.5'
p3643
(dp3644
I-2
(dp3645
S'1.0'
p3646
(dp3647
I0
(dp3648
S'1.0'
p3649
(dp3650
I-1
(dp3651
S'1.0'
p3652
(dp3653
I0
(dp3654
S'1.0'
p3655
(dp3656
I1
S'1.0'
p3657
sssssssssI-1
S'0.0'
p3658
sssI-1
S'0.0'
p3659
sssI-1
(dp3660
S'1.0'
p3661
(dp3662
I1
(dp3663
S'1.0'
p3664
(dp3665
I0
(dp3666
S'1.0'
p3667
(dp3668
I-2
(dp3669
S'1.0'
p3670
(dp3671
I-1
(dp3672
S'1.0'
p3673
(dp3674
I-1
(dp3675
S'1.0'
p3676
(dp3677
I-1
(dp3678
S'1.0'
p3679
(dp3680
I0
(dp3681
S'1.0'
p3682
(dp3683
I-1
(dp3684
S'1.0'
p3685
(dp3686
I-1
(dp3687
S'1.0'
p3688
(dp3689
I1
S'1.0'
p3690
sssssssssssssssssssssssI-1
(dp3691
S'0.33'
p3692
(dp3693
I0
(dp3694
S'0.43'
p3695
(dp3696
I0
S'0.2'
p3697
sI1
(dp3698
S'1.0'
p3699
(dp3700
I0
S'1.0'
p3701
sI-1
(dp3702
S'1.0'
p3703
(dp3704
I-1
(dp3705
S'1.0'
p3706
(dp3707
I0
(dp3708
S'1.0'
p3709
(dp3710
I1
(dp3711
S'1.0'
p3712
(dp3713
I-1
(dp3714
S'1.0'
p3715
(dp3716
I-1
(dp3717
S'1.0'
p3718
(dp3719
I-1
(dp3720
S'1.0'
p3721
(dp3722
I-1
(dp3723
S'1.0'
p3724
(dp3725
I-1
(dp3726
S'1.0'
p3727
(dp3728
I-1
(dp3729
S'1.0'
p3730
(dp3731
I-1
(dp3732
S'1.0'
p3733
(dp3734
I0
(dp3735
S'1.0'
p3736
(dp3737
I1
(dp3738
S'1.0'
p3739
(dp3740
I-1
(dp3741
S'1.0'
p3742
(dp3743
I-1
(dp3744
S'1.0'
p3745
(dp3746
I0
(dp3747
S'1.0'
p3748
(dp3749
I0
(dp3750
S'1.0'
p3751
(dp3752
I-1
(dp3753
S'1.0'
p3754
(dp3755
I-2
(dp3756
S'1.0'
p3757
(dp3758
I1
S'1.0'
p3759
sssssssssssssssssssssssssssssssssssssssssssI-1
(dp3760
S'0.25'
p3761
(dp3762
I0
(dp3763
S'0.4'
p3764
(dp3765
I0
(dp3766
S'0.5'
p3767
(dp3768
I0
S'0.0'
p3769
sI-1
(dp3770
S'1.0'
p3771
(dp3772
I2
S'1.0'
p3773
sssssI1
(dp3774
S'1.0'
p3775
(dp3776
I-1
(dp3777
S'1.0'
p3778
(dp3779
I-1
(dp3780
S'1.0'
p3781
(dp3782
I-1
(dp3783
S'1.0'
p3784
(dp3785
I0
(dp3786
S'1.0'
p3787
(dp3788
I0
(dp3789
S'1.0'
p3790
(dp3791
I1
(dp3792
S'1.0'
p3793
(dp3794
I-2
(dp3795
S'1.0'
p3796
(dp3797
I-1
(dp3798
S'1.0'
p3799
(dp3800
I-1
(dp3801
S'1.0'
p3802
(dp3803
I0
(dp3804
S'1.0'
p3805
(dp3806
I1
S'1.0'
p3807
sssssssssssssssssssssssI-2
(dp3808
S'0.0'
p3809
(dp3810
I-1
(dp3811
S'0.0'
p3812
(dp3813
I-1
S'0.0'
p3814
sssssI-1
(dp3815
S'0.0'
p3816
(dp3817
I-2
(dp3818
S'0.0'
p3819
(dp3820
I-1
S'0.0'
p3821
sssssssI-1
(dp3822
S'0.0'
p3823
(dp3824
I0
(dp3825
S'0.0'
p3826
(dp3827
I-1
S'0.0'
p3828
sssI-1
(dp3829
S'0.0'
p3830
(dp3831
I0
(dp3832
S'0.0'
p3833
(dp3834
I-2
S'0.0'
p3835
sssI-1
(dp3836
S'0.0'
p3837
(dp3838
I-1
(dp3839
S'0.0'
p3840
(dp3841
I-1
(dp3842
S'0.0'
p3843
(dp3844
I-1
(dp3845
S'0.0'
p3846
(dp3847
I-1
(dp3848
S'0.0'
p3849
(dp3850
I0
(dp3851
S'0.0'
p3852
(dp3853
I1
(dp3854
S'0.0'
p3855
(dp3856
I0
(dp3857
S'0.0'
p3858
(dp3859
I1
(dp3860
S'0.0'
p3861
(dp3862
I-1
(dp3863
S'0.0'
p3864
(dp3865
I0
(dp3866
S'0.0'
p3867
(dp3868
I1
(dp3869
S'0.0'
p3870
(dp3871
I-1
(dp3872
S'0.0'
p3873
(dp3874
I0
(dp3875
S'0.0'
p3876
(dp3877
I-2
(dp3878
S'0.0'
p3879
(dp3880
I-1
(dp3881
S'0.0'
p3882
(dp3883
I0
(dp3884
S'0.0'
p3885
(dp3886
I-1
S'0.0'
p3887
sssssssssssssssssssssssssssssssssssssssssssssI-1
(dp3888
S'0.18'
p3889
(dp3890
I0
(dp3891
S'0.0'
p3892
(dp3893
I0
S'0.0'
p3894
sI1
(dp3895
S'0.0'
p3896
(dp3897
I-2
(dp3898
S'0.0'
p3899
(dp3900
I-1
(dp3901
S'0.0'
p3902
(dp3903
I0
(dp3904
S'0.0'
p3905
(dp3906
I-1
S'0.0'
p3907
sssssssssI-2
(dp3908
S'0.0'
p3909
(dp3910
I-1
S'0.0'
p3911
sssssI1
(dp3912
S'0.0'
p3913
(dp3914
I0
(dp3915
S'0.0'
p3916
(dp3917
I-2
S'0.0'
p3918
sssI-1
(dp3919
S'0.0'
p3920
(dp3921
I0
(dp3922
S'0.0'
p3923
(dp3924
I1
(dp3925
S'0.0'
p3926
(dp3927
I-1
(dp3928
S'0.0'
p3929
(dp3930
I-1
(dp3931
S'0.0'
p3932
(dp3933
I-1
S'0.0'
p3934
sssssssssssssI-1
(dp3935
S'0.38'
p3936
(dp3937
I0
S'0.0'
p3938
sI1
(dp3939
S'1.0'
p3940
(dp3941
I-1
(dp3942
S'1.0'
p3943
(dp3944
I-1
(dp3945
S'1.0'
p3946
(dp3947
I-1
(dp3948
S'1.0'
p3949
(dp3950
I0
(dp3951
S'1.0'
p3952
(dp3953
I0
(dp3954
S'1.0'
p3955
(dp3956
I2
S'1.0'
p3957
sssssssssssssI-2
(dp3958
S'0.67'
p3959
(dp3960
I0
(dp3961
S'0.5'
p3962
(dp3963
I0
(dp3964
S'0.5'
p3965
(dp3966
I2
S'1.0'
p3967
sI-1
(dp3968
S'0.0'
p3969
(dp3970
I-2
(dp3971
S'0.0'
p3972
(dp3973
I1
(dp3974
S'0.0'
p3975
(dp3976
I0
(dp3977
S'0.0'
p3978
(dp3979
I0
(dp3980
S'0.0'
p3981
(dp3982
I-2
(dp3983
S'0.0'
p3984
(dp3985
I-1
(dp3986
S'0.0'
p3987
(dp3988
I-2
S'0.0'
p3989
sssssssssssssssssssI-1
(dp3990
S'1.0'
p3991
(dp3992
I0
(dp3993
S'1.0'
p3994
(dp3995
I0
(dp3996
S'1.0'
p3997
(dp3998
I0
(dp3999
S'1.0'
p4000
(dp4001
I1
S'1.0'
p4002
sssssssssssI-1
(dp4003
S'0.0'
p4004
(dp4005
I1
S'0.0'
p4006
sI-1
(dp4007
S'0.0'
p4008
(dp4009
I0
(dp4010
S'0.0'
p4011
(dp4012
I-2
(dp4013
S'0.0'
p4014
(dp4015
I-2
(dp4016
S'0.0'
p4017
(dp4018
I-1
(dp4019
S'0.0'
p4020
(dp4021
I-1
S'0.0'
p4022
sssssssssssssssI-2
(dp4023
S'0.0'
p4024
(dp4025
I0
(dp4026
S'0.0'
p4027
(dp4028
I0
(dp4029
S'0.0'
p4030
(dp4031
I-2
(dp4032
S'0.0'
p4033
(dp4034
I1
(dp4035
S'0.0'
p4036
(dp4037
I0
(dp4038
S'0.0'
p4039
(dp4040
I1
(dp4041
S'0.0'
p4042
(dp4043
I-1
(dp4044
S'0.0'
p4045
(dp4046
I-1
(dp4047
S'0.0'
p4048
(dp4049
I-1
S'0.0'
p4050
sssssssssssssssssI-1
(dp4051
S'0.0'
p4052
(dp4053
I0
(dp4054
S'0.0'
p4055
(dp4056
I-2
(dp4057
S'0.0'
p4058
(dp4059
I0
(dp4060
S'0.0'
p4061
(dp4062
I1
(dp4063
S'0.0'
p4064
(dp4065
I0
(dp4066
S'0.0'
p4067
(dp4068
I1
(dp4069
S'0.0'
p4070
(dp4071
I-1
(dp4072
S'0.0'
p4073
(dp4074
I0
(dp4075
S'0.0'
p4076
(dp4077
I-1
(dp4078
S'0.0'
p4079
(dp4080
I1
(dp4081
S'0.0'
p4082
(dp4083
I0
(dp4084
S'0.0'
p4085
(dp4086
I0
(dp4087
S'0.0'
p4088
(dp4089
I-1
(dp4090
S'0.0'
p4091
(dp4092
I-2
(dp4093
S'0.0'
p4094
(dp4095
I1
(dp4096
S'0.0'
p4097
(dp4098
I0
(dp4099
S'0.0'
p4100
(dp4101
I1
(dp4102
S'0.0'
p4103
(dp4104
I-1
(dp4105
S'0.0'
p4106
(dp4107
I0
(dp4108
S'0.0'
p4109
(dp4110
I1
(dp4111
S'0.0'
p4112
(dp4113
I0
(dp4114
S'0.0'
p4115
(dp4116
I1
(dp4117
S'0.0'
p4118
(dp4119
I-1
(dp4120
S'0.0'
p4121
(dp4122
I-1
S'0.0'
p4123
sssssssssssssssssssssssssssssssssssssssssssssssI-1
S'0.0'
p4124
sssssssI-2
(dp4125
S'0.3'
p4126
(dp4127
I0
(dp4128
S'0.33'
p4129
(dp4130
I0
(dp4131
S'0.5'
p4132
(dp4133
I0
S'0.0'
p4134
sI-1
(dp4135
S'1.0'
p4136
(dp4137
I1
(dp4138
S'1.0'
p4139
(dp4140
I0
(dp4141
S'1.0'
p4142
(dp4143
I0
(dp4144
S'1.0'
p4145
(dp4146
I0
(dp4147
S'1.0'
p4148
(dp4149
I-1
(dp4150
S'1.0'
p4151
(dp4152
I2
S'1.0'
p4153
sssssssssssssssI1
(dp4154
S'0.0'
p4155
(dp4156
I0
(dp4157
S'0.0'
p4158
(dp4159
I-1
(dp4160
S'0.0'
p4161
(dp4162
I-2
(dp4163
S'0.0'
p4164
(dp4165
I0
(dp4166
S'0.0'
p4167
(dp4168
I-1
(dp4169
S'0.0'
p4170
(dp4171
I0
(dp4172
S'0.0'
p4173
(dp4174
I1
S'0.0'
p4175
sssssssssssssssI-1
(dp4176
S'0.33'
p4177
(dp4178
I0
S'0.0'
p4179
sI-1
(dp4180
S'0.0'
p4181
(dp4182
I-2
(dp4183
S'0.0'
p4184
(dp4185
I-1
(dp4186
S'0.0'
p4187
(dp4188
I0
(dp4189
S'0.0'
p4190
(dp4191
I-1
S'0.0'
p4192
sssssssssI-2
(dp4193
S'1.0'
p4194
(dp4195
I-1
(dp4196
S'1.0'
p4197
(dp4198
I-1
(dp4199
S'1.0'
p4200
(dp4201
I0
(dp4202
S'1.0'
p4203
(dp4204
I-1
(dp4205
S'1.0'
p4206
(dp4207
I0
(dp4208
S'1.0'
p4209
(dp4210
I-1
(dp4211
S'1.0'
p4212
(dp4213
I1
(dp4214
S'1.0'
p4215
(dp4216
I0
(dp4217
S'1.0'
p4218
(dp4219
I-2
(dp4220
S'1.0'
p4221
(dp4222
I1
S'1.0'
p4223
sssssssssssssssssssssssssI-1
(dp4224
S'0.25'
p4225
(dp4226
I0
(dp4227
S'1.0'
p4228
(dp4229
I-1
(dp4230
S'1.0'
p4231
(dp4232
I-1
(dp4233
S'1.0'
p4234
(dp4235
I-1
(dp4236
S'1.0'
p4237
(dp4238
I-2
(dp4239
S'1.0'
p4240
(dp4241
I-1
(dp4242
S'1.0'
p4243
(dp4244
I-1
(dp4245
S'1.0'
p4246
(dp4247
I-1
(dp4248
S'1.0'
p4249
(dp4250
I-1
(dp4251
S'1.0'
p4252
(dp4253
I-1
(dp4254
S'1.0'
p4255
(dp4256
I0
(dp4257
S'1.0'
p4258
(dp4259
I0
(dp4260
S'1.0'
p4261
(dp4262
I-1
(dp4263
S'1.0'
p4264
(dp4265
I0
(dp4266
S'1.0'
p4267
(dp4268
I-1
(dp4269
S'1.0'
p4270
(dp4271
I0
(dp4272
S'1.0'
p4273
(dp4274
I2
S'1.0'
p4275
sssssssssssssssssssssssssssssssssI-1
(dp4276
S'0.0'
p4277
(dp4278
I0
(dp4279
S'0.0'
p4280
(dp4281
I0
(dp4282
S'0.0'
p4283
(dp4284
I0
S'0.0'
p4285
sI1
(dp4286
S'0.0'
p4287
(dp4288
I-1
(dp4289
S'0.0'
p4290
(dp4291
I1
(dp4292
S'0.0'
p4293
(dp4294
I-1
(dp4295
S'0.0'
p4296
(dp4297
I0
(dp4298
S'0.0'
p4299
(dp4300
I-1
(dp4301
S'0.0'
p4302
(dp4303
I-2
(dp4304
S'0.0'
p4305
(dp4306
I0
(dp4307
S'0.0'
p4308
(dp4309
I-2
(dp4310
S'0.0'
p4311
(dp4312
I-1
(dp4313
S'0.0'
p4314
(dp4315
I-1
(dp4316
S'0.0'
p4317
(dp4318
I0
(dp4319
S'0.0'
p4320
(dp4321
I-2
(dp4322
S'0.0'
p4323
(dp4324
I0
(dp4325
S'0.0'
p4326
(dp4327
I-1
(dp4328
S'0.0'
p4329
(dp4330
I-1
S'0.0'
p4331
sssssssssssssssssssssssssssssssssssI-1
S'0.0'
p4332
sssssssssssI-2
(dp4333
S'0.1'
p4334
(dp4335
I0
(dp4336
S'0.12'
p4337
(dp4338
I0
S'0.06'
p4339
sI1
(dp4340
S'0.2'
p4341
(dp4342
I0
(dp4343
S'0.29'
p4344
(dp4345
I0
S'0.33'
p4346
sI-1
(dp4347
S'0.33'
p4348
(dp4349
I0
(dp4350
S'0.5'
p4351
(dp4352
I0
S'0.0'
p4353
sI-1
(dp4354
S'1.0'
p4355
(dp4356
I1
S'1.0'
p4357
sssssI1
(dp4358
S'0.0'
p4359
(dp4360
I-1
S'0.0'
p4361
sssssI-2
S'0.0'
p4362
sssI-1
(dp4363
S'0.13'
p4364
(dp4365
I0
(dp4366
S'0.2'
p4367
(dp4368
I0
(dp4369
S'0.33'
p4370
(dp4371
I0
S'0.0'
p4372
sI-1
(dp4373
S'1.0'
p4374
(dp4375
I2
(dp4376
S'1.0'
p4377
(dp4378
I0
(dp4379
S'1.0'
p4380
(dp4381
I-1
(dp4382
S'1.0'
p4383
(dp4384
I-2
(dp4385
S'1.0'
p4386
(dp4387
I0
(dp4388
S'1.0'
p4389
(dp4390
I0
(dp4391
S'1.0'
p4392
(dp4393
I2
(dp4394
S'1.0'
p4395
(dp4396
I-1
(dp4397
S'1.0'
p4398
(dp4399
I0
(dp4400
S'1.0'
p4401
(dp4402
I0
(dp4403
S'1.0'
p4404
(dp4405
I1
S'1.0'
p4406
sssssssssssssssssssssssssI1
(dp4407
S'0.0'
p4408
(dp4409
I-1
(dp4410
S'0.0'
p4411
(dp4412
I0
(dp4413
S'0.0'
p4414
(dp4415
I1
S'0.0'
p4416
sssssssI-2
S'0.0'
p4417
sssI-1
(dp4418
S'0.0'
p4419
(dp4420
I0
(dp4421
S'0.0'
p4422
(dp4423
I1
(dp4424
S'0.0'
p4425
(dp4426
I-1
(dp4427
S'0.0'
p4428
(dp4429
I-1
(dp4430
S'0.0'
p4431
(dp4432
I0
(dp4433
S'0.0'
p4434
(dp4435
I1
S'0.0'
p4436
sssssssssssI-1
S'0.0'
p4437
sssssssI-2
(dp4438
S'0.07'
p4439
(dp4440
I0
(dp4441
S'0.0'
p4442
(dp4443
I0
(dp4444
S'0.0'
p4445
(dp4446
I0
S'0.0'
p4447
sI-1
(dp4448
S'0.0'
p4449
(dp4450
I-2
(dp4451
S'0.0'
p4452
(dp4453
I0
(dp4454
S'0.0'
p4455
(dp4456
I-2
S'0.0'
p4457
sssssssssssI-1
(dp4458
S'0.09'
p4459
(dp4460
I0
(dp4461
S'0.13'
p4462
(dp4463
I0
S'0.0'
p4464
sI1
(dp4465
S'0.0'
p4466
(dp4467
I0
(dp4468
S'0.0'
p4469
(dp4470
I1
(dp4471
S'0.0'
p4472
(dp4473
I0
(dp4474
S'0.0'
p4475
(dp4476
I-1
(dp4477
S'0.0'
p4478
(dp4479
I-1
(dp4480
S'0.0'
p4481
(dp4482
I-1
(dp4483
S'0.0'
p4484
(dp4485
I-2
(dp4486
S'0.0'
p4487
(dp4488
I0
(dp4489
S'0.0'
p4490
(dp4491
I-1
(dp4492
S'0.0'
p4493
(dp4494
I-2
(dp4495
S'0.0'
p4496
(dp4497
I-1
(dp4498
S'0.0'
p4499
(dp4500
I0
(dp4501
S'0.0'
p4502
(dp4503
I0
(dp4504
S'0.0'
p4505
(dp4506
I0
(dp4507
S'0.0'
p4508
(dp4509
I-1
(dp4510
S'0.0'
p4511
(dp4512
I-2
(dp4513
S'0.0'
p4514
(dp4515
I-1
(dp4516
S'0.0'
p4517
(dp4518
I1
S'0.0'
p4519
sssssssssssssssssssssssssssssssssssssI-1
(dp4520
S'0.33'
p4521
(dp4522
I0
S'0.0'
p4523
sI1
(dp4524
S'0.5'
p4525
(dp4526
I0
(dp4527
S'1.0'
p4528
(dp4529
I1
S'1.0'
p4530
sssI-1
(dp4531
S'0.0'
p4532
(dp4533
I-1
(dp4534
S'0.0'
p4535
(dp4536
I0
(dp4537
S'0.0'
p4538
(dp4539
I0
(dp4540
S'0.0'
p4541
(dp4542
I1
(dp4543
S'0.0'
p4544
(dp4545
I-2
(dp4546
S'0.0'
p4547
(dp4548
I-1
(dp4549
S'0.0'
p4550
(dp4551
I0
(dp4552
S'0.0'
p4553
(dp4554
I-1
S'0.0'
p4555
sssssssssssssssssssssssI-1
(dp4556
S'0.0'
p4557
(dp4558
I0
S'0.0'
p4559
sI-1
(dp4560
S'0.0'
p4561
(dp4562
I-1
(dp4563
S'0.0'
p4564
(dp4565
I0
(dp4566
S'0.0'
p4567
(dp4568
I-2
(dp4569
S'0.0'
p4570
(dp4571
I-1
S'0.0'
p4572
sssssssssssssssI-1
(dp4573
S'0.31'
p4574
(dp4575
I0
(dp4576
S'0.5'
p4577
(dp4578
I0
(dp4579
S'0.5'
p4580
(dp4581
I0
S'0.0'
p4582
sI2
S'1.0'
p4583
sI-2
(dp4584
S'1.0'
p4585
(dp4586
I2
S'1.0'
p4587
sssssI2
(dp4588
S'1.0'
p4589
(dp4590
I0
(dp4591
S'1.0'
p4592
(dp4593
I-2
(dp4594
S'1.0'
p4595
(dp4596
I0
(dp4597
S'1.0'
p4598
(dp4599
I-1
(dp4600
S'1.0'
p4601
(dp4602
I-2
(dp4603
S'1.0'
p4604
(dp4605
I-1
(dp4606
S'1.0'
p4607
(dp4608
I0
(dp4609
S'1.0'
p4610
(dp4611
I-1
(dp4612
S'1.0'
p4613
(dp4614
I-2
(dp4615
S'1.0'
p4616
(dp4617
I-1
(dp4618
S'1.0'
p4619
(dp4620
I0
(dp4621
S'1.0'
p4622
(dp4623
I0
(dp4624
S'1.0'
p4625
(dp4626
I2
S'1.0'
p4627
sssssssssssssssssssssssssssI-2
S'0.0'
p4628
sssI1
(dp4629
S'0.0'
p4630
(dp4631
I-1
(dp4632
S'0.0'
p4633
(dp4634
I-1
S'0.0'
p4635
sssssI-1
(dp4636
S'0.0'
p4637
(dp4638
I-2
(dp4639
S'0.0'
p4640
(dp4641
I-1
(dp4642
S'0.0'
p4643
(dp4644
I-1
(dp4645
S'0.0'
p4646
(dp4647
I0
(dp4648
S'0.0'
p4649
(dp4650
I-2
(dp4651
S'0.0'
p4652
(dp4653
I-1
S'0.0'
p4654
sssssssssssI-1
(dp4655
S'0.0'
p4656
(dp4657
I-1
S'0.0'
p4658
sssssI-2
(dp4659
S'0.25'
p4660
(dp4661
I0
S'0.0'
p4662
sI-1
(dp4663
S'1.0'
p4664
(dp4665
I0
(dp4666
S'1.0'
p4667
(dp4668
I1
(dp4669
S'1.0'
p4670
(dp4671
I0
(dp4672
S'1.0'
p4673
(dp4674
I0
(dp4675
S'1.0'
p4676
(dp4677
I2
S'1.0'
p4678
sssssssssssssssssI-1
(dp4679
S'0.08'
p4680
(dp4681
I0
(dp4682
S'0.02'
p4683
(dp4684
I0
S'0.0'
p4685
sI1
(dp4686
S'0.0'
p4687
(dp4688
I0
(dp4689
S'0.0'
p4690
(dp4691
I-1
(dp4692
S'0.0'
p4693
(dp4694
I-1
(dp4695
S'0.0'
p4696
(dp4697
I1
(dp4698
S'0.0'
p4699
(dp4700
I-1
(dp4701
S'0.0'
p4702
(dp4703
I-1
(dp4704
S'0.0'
p4705
(dp4706
I-1
(dp4707
S'0.0'
p4708
(dp4709
I-1
(dp4710
S'0.0'
p4711
(dp4712
I-1
(dp4713
S'0.0'
p4714
(dp4715
I-1
(dp4716
S'0.0'
p4717
(dp4718
I-1
(dp4719
S'0.0'
p4720
(dp4721
I-1
(dp4722
S'0.0'
p4723
(dp4724
I-1
S'0.0'
p4725
sssssssssssssssssssssssssssI-1
(dp4726
S'0.11'
p4727
(dp4728
I0
S'0.0'
p4729
sI1
(dp4730
S'0.25'
p4731
(dp4732
I0
(dp4733
S'0.25'
p4734
(dp4735
I0
S'0.0'
p4736
sI1
S'1.0'
p4737
sI-2
(dp4738
S'0.0'
p4739
(dp4740
I-1
(dp4741
S'0.0'
p4742
(dp4743
I0
(dp4744
S'0.0'
p4745
(dp4746
I-1
(dp4747
S'0.0'
p4748
(dp4749
I0
(dp4750
S'0.0'
p4751
(dp4752
I0
(dp4753
S'0.0'
p4754
(dp4755
I-1
S'0.0'
p4756
sssssssssssssssssI-2
(dp4757
S'0.0'
p4758
(dp4759
I-1
S'0.0'
p4760
sssI-1
S'0.0'
p4761
sssI-2
(dp4762
S'0.0'
p4763
(dp4764
I-1
(dp4765
S'0.0'
p4766
(dp4767
I0
S'0.0'
p4768
sI-1
(dp4769
S'0.0'
p4770
(dp4771
I-1
(dp4772
S'0.0'
p4773
(dp4774
I-1
(dp4775
S'0.0'
p4776
(dp4777
I-1
(dp4778
S'0.0'
p4779
(dp4780
I-1
(dp4781
S'0.0'
p4782
(dp4783
I0
(dp4784
S'0.0'
p4785
(dp4786
I-2
(dp4787
S'0.0'
p4788
(dp4789
I0
(dp4790
S'0.0'
p4791
(dp4792
I1
(dp4793
S'0.0'
p4794
(dp4795
I0
(dp4796
S'0.0'
p4797
(dp4798
I-2
(dp4799
S'0.0'
p4800
(dp4801
I0
(dp4802
S'0.0'
p4803
(dp4804
I-1
S'0.0'
p4805
sssssssssssssssssssssssssssssssI-1
(dp4806
S'0.16'
p4807
(dp4808
I0
(dp4809
S'0.15'
p4810
(dp4811
I0
S'0.07'
p4812
sI1
(dp4813
S'0.5'
p4814
(dp4815
I0
(dp4816
S'0.5'
p4817
(dp4818
I1
(dp4819
S'0.5'
p4820
(dp4821
I0
(dp4822
S'0.5'
p4823
(dp4824
I0
(dp4825
S'1.0'
p4826
(dp4827
I-1
(dp4828
S'1.0'
p4829
(dp4830
I1
(dp4831
S'1.0'
p4832
(dp4833
I1
S'1.0'
p4834
sssssssI1
(dp4835
S'0.0'
p4836
(dp4837
I0
(dp4838
S'0.0'
p4839
(dp4840
I1
(dp4841
S'0.0'
p4842
(dp4843
I0
(dp4844
S'0.0'
p4845
(dp4846
I-2
(dp4847
S'0.0'
p4848
(dp4849
I0
(dp4850
S'0.0'
p4851
(dp4852
I0
(dp4853
S'0.0'
p4854
(dp4855
I-1
(dp4856
S'0.0'
p4857
(dp4858
I-2
(dp4859
S'0.0'
p4860
(dp4861
I0
(dp4862
S'0.0'
p4863
(dp4864
I-2
S'0.0'
p4865
sssssssssssssssssssssssssssssI-1
(dp4866
S'0.0'
p4867
(dp4868
I1
(dp4869
S'0.0'
p4870
(dp4871
I0
(dp4872
S'0.0'
p4873
(dp4874
I-2
(dp4875
S'0.0'
p4876
(dp4877
I-1
S'0.0'
p4878
sssssssssI-2
(dp4879
S'0.33'
p4880
(dp4881
I-1
(dp4882
S'0.33'
p4883
(dp4884
I0
S'0.0'
p4885
sI-1
(dp4886
S'0.5'
p4887
(dp4888
I-1
(dp4889
S'0.5'
p4890
(dp4891
I0
S'0.0'
p4892
sI-1
(dp4893
S'1.0'
p4894
(dp4895
I-1
(dp4896
S'1.0'
p4897
(dp4898
I-1
(dp4899
S'1.0'
p4900
(dp4901
I-1
(dp4902
S'1.0'
p4903
(dp4904
I0
(dp4905
S'1.0'
p4906
(dp4907
I-1
(dp4908
S'1.0'
p4909
(dp4910
I-2
(dp4911
S'1.0'
p4912
(dp4913
I-1
(dp4914
S'1.0'
p4915
(dp4916
I0
(dp4917
S'1.0'
p4918
(dp4919
I-1
(dp4920
S'1.0'
p4921
(dp4922
I-1
(dp4923
S'1.0'
p4924
(dp4925
I1
S'1.0'
p4926
sssssssssssssssssssssssssssssssssI-1
(dp4927
S'0.18'
p4928
(dp4929
I0
(dp4930
S'0.25'
p4931
(dp4932
I0
S'0.0'
p4933
sI1
(dp4934
S'0.5'
p4935
(dp4936
I0
S'1.0'
p4937
sI-1
(dp4938
S'0.0'
p4939
(dp4940
I0
(dp4941
S'0.0'
p4942
(dp4943
I-1
(dp4944
S'0.0'
p4945
(dp4946
I-1
(dp4947
S'0.0'
p4948
(dp4949
I-2
(dp4950
S'0.0'
p4951
(dp4952
I-1
S'0.0'
p4953
sssssssssssssI-2
(dp4954
S'0.0'
p4955
(dp4956
I-1
S'0.0'
p4957
sssI-1
(dp4958
S'0.33'
p4959
(dp4960
I0
S'0.0'
p4961
sI-2
(dp4962
S'0.5'
p4963
(dp4964
I0
(dp4965
S'1.0'
p4966
(dp4967
I0
(dp4968
S'1.0'
p4969
(dp4970
I0
(dp4971
S'1.0'
p4972
(dp4973
I-1
(dp4974
S'1.0'
p4975
(dp4976
I2
(dp4977
S'1.0'
p4978
(dp4979
I1
S'1.0'
p4980
sssssssssssI-1
S'0.0'
p4981
sssssssI-1
(dp4982
S'0.0'
p4983
(dp4984
I0
(dp4985
S'0.0'
p4986
(dp4987
I0
S'0.0'
p4988
sI-2
(dp4989
S'0.0'
p4990
(dp4991
I0
(dp4992
S'0.0'
p4993
(dp4994
I-2
(dp4995
S'0.0'
p4996
(dp4997
I0
(dp4998
S'0.0'
p4999
(dp5000
I-2
(dp5001
S'0.0'
p5002
(dp5003
I0
(dp5004
S'0.0'
p5005
(dp5006
I-2
(dp5007
S'0.0'
p5008
(dp5009
I-1
(dp5010
S'0.0'
p5011
(dp5012
I-1
(dp5013
S'0.0'
p5014
(dp5015
I-1
S'0.0'
p5016
sssssssssssssssssI-1
S'0.0'
p5017
sssssssssssssssssI-1
(dp5018
S'0.1'
p5019
(dp5020
I0
(dp5021
S'0.07'
p5022
(dp5023
I0
S'0.0'
p5024
sI1
(dp5025
S'0.17'
p5026
(dp5027
I0
(dp5028
S'0.08'
p5029
(dp5030
I0
(dp5031
S'0.0'
p5032
(dp5033
I0
S'0.0'
p5034
sI1
(dp5035
S'0.0'
p5036
(dp5037
I-2
(dp5038
S'0.0'
p5039
(dp5040
I-1
(dp5041
S'0.0'
p5042
(dp5043
I-1
S'0.0'
p5044
sssssssI-2
(dp5045
S'0.0'
p5046
(dp5047
I-1
(dp5048
S'0.0'
p5049
(dp5050
I-2
(dp5051
S'0.0'
p5052
(dp5053
I0
(dp5054
S'0.0'
p5055
(dp5056
I-1
(dp5057
S'0.0'
p5058
(dp5059
I-2
(dp5060
S'0.0'
p5061
(dp5062
I-1
(dp5063
S'0.0'
p5064
(dp5065
I0
(dp5066
S'0.0'
p5067
(dp5068
I-1
S'0.0'
p5069
sssssssssssssssssssI1
(dp5070
S'0.67'
p5071
(dp5072
I0
(dp5073
S'0.67'
p5074
(dp5075
I0
(dp5076
S'0.5'
p5077
(dp5078
I0
S'0.0'
p5079
sI-1
(dp5080
S'1.0'
p5081
(dp5082
I1
S'1.0'
p5083
sssssI-1
(dp5084
S'1.0'
p5085
(dp5086
I1
S'1.0'
p5087
sssssssI-2
(dp5088
S'0.0'
p5089
(dp5090
I0
S'0.0'
p5091
sI-1
S'0.0'
p5092
sssI-1
S'0.0'
p5093
sssI-1
(dp5094
S'0.36'
p5095
(dp5096
I0
(dp5097
S'0.0'
p5098
(dp5099
I0
S'0.0'
p5100
sI1
(dp5101
S'0.0'
p5102
(dp5103
I0
(dp5104
S'0.0'
p5105
(dp5106
I0
(dp5107
S'0.0'
p5108
(dp5109
I-1
S'0.0'
p5110
sssssssssI-1
(dp5111
S'0.5'
p5112
(dp5113
I0
S'0.25'
p5114
sI-1
(dp5115
S'0.75'
p5116
(dp5117
I0
(dp5118
S'0.75'
p5119
(dp5120
I0
(dp5121
S'0.5'
p5122
(dp5123
I0
S'0.0'
p5124
sI1
(dp5125
S'1.0'
p5126
(dp5127
I-1
(dp5128
S'1.0'
p5129
(dp5130
I-2
(dp5131
S'1.0'
p5132
(dp5133
I-1
(dp5134
S'1.0'
p5135
(dp5136
I-1
(dp5137
S'1.0'
p5138
(dp5139
I-1
(dp5140
S'1.0'
p5141
(dp5142
I0
(dp5143
S'1.0'
p5144
(dp5145
I1
S'1.0'
p5146
sssssssssssssssssI1
(dp5147
S'1.0'
p5148
(dp5149
I0
(dp5150
S'1.0'
p5151
(dp5152
I1
(dp5153
S'1.0'
p5154
(dp5155
I0
(dp5156
S'1.0'
p5157
(dp5158
I-2
(dp5159
S'1.0'
p5160
(dp5161
I0
(dp5162
S'1.0'
p5163
(dp5164
I0
(dp5165
S'1.0'
p5166
(dp5167
I-2
(dp5168
S'1.0'
p5169
(dp5170
I1
(dp5171
S'1.0'
p5172
(dp5173
I-1
(dp5174
S'1.0'
p5175
(dp5176
I-1
(dp5177
S'1.0'
p5178
(dp5179
I0
(dp5180
S'1.0'
p5181
(dp5182
I0
(dp5183
S'1.0'
p5184
(dp5185
I-2
(dp5186
S'1.0'
p5187
(dp5188
I-1
(dp5189
S'1.0'
p5190
(dp5191
I1
(dp5192
S'1.0'
p5193
(dp5194
I-1
(dp5195
S'1.0'
p5196
(dp5197
I0
(dp5198
S'1.0'
p5199
(dp5200
I-2
(dp5201
S'1.0'
p5202
(dp5203
I-1
(dp5204
S'1.0'
p5205
(dp5206
I-1
(dp5207
S'1.0'
p5208
(dp5209
I-1
(dp5210
S'1.0'
p5211
(dp5212
I0
(dp5213
S'1.0'
p5214
(dp5215
I1
S'1.0'
p5216
sssssssssssssssssssssssssssssssssssssssssssssI-1
(dp5217
S'1.0'
p5218
(dp5219
I0
(dp5220
S'1.0'
p5221
(dp5222
I-1
(dp5223
S'1.0'
p5224
(dp5225
I1
(dp5226
S'1.0'
p5227
(dp5228
I0
(dp5229
S'1.0'
p5230
(dp5231
I-1
(dp5232
S'1.0'
p5233
(dp5234
I-2
(dp5235
S'1.0'
p5236
(dp5237
I-1
(dp5238
S'1.0'
p5239
(dp5240
I0
(dp5241
S'1.0'
p5242
(dp5243
I-1
(dp5244
S'1.0'
p5245
(dp5246
I0
(dp5247
S'1.0'
p5248
(dp5249
I2
S'1.0'
p5250
sssssssssssssssssssssssssssssssssssI-2
(dp5251
S'0.18'
p5252
(dp5253
I0
(dp5254
S'0.07'
p5255
(dp5256
I0
S'0.0'
p5257
sI1
(dp5258
S'0.0'
p5259
(dp5260
I0
(dp5261
S'0.0'
p5262
(dp5263
I0
S'0.0'
p5264
sI1
(dp5265
S'0.0'
p5266
(dp5267
I0
(dp5268
S'0.0'
p5269
(dp5270
I-1
(dp5271
S'0.0'
p5272
(dp5273
I0
(dp5274
S'0.0'
p5275
(dp5276
I-2
S'0.0'
p5277
sssssssssssI-1
(dp5278
S'0.0'
p5279
(dp5280
I-1
(dp5281
S'0.0'
p5282
(dp5283
I-1
(dp5284
S'0.0'
p5285
(dp5286
I-1
(dp5287
S'0.0'
p5288
(dp5289
I-1
(dp5290
S'0.0'
p5291
(dp5292
I-1
(dp5293
S'0.0'
p5294
(dp5295
I-1
(dp5296
S'0.0'
p5297
(dp5298
I-1
(dp5299
S'0.0'
p5300
(dp5301
I0
(dp5302
S'0.0'
p5303
(dp5304
I-1
(dp5305
S'0.0'
p5306
(dp5307
I1
(dp5308
S'0.0'
p5309
(dp5310
I0
(dp5311
S'0.0'
p5312
(dp5313
I-1
(dp5314
S'0.0'
p5315
(dp5316
I-2
(dp5317
S'0.0'
p5318
(dp5319
I-1
S'0.0'
p5320
sssssssssssssssssssssssssssssssI-2
(dp5321
S'0.0'
p5322
(dp5323
I0
(dp5324
S'0.0'
p5325
(dp5326
I0
(dp5327
S'0.0'
p5328
(dp5329
I-1
S'0.0'
p5330
sssssssI-1
(dp5331
S'0.25'
p5332
(dp5333
I0
(dp5334
S'0.0'
p5335
(dp5336
I1
S'0.0'
p5337
sssI1
(dp5338
S'1.0'
p5339
(dp5340
I-1
(dp5341
S'1.0'
p5342
(dp5343
I-1
(dp5344
S'1.0'
p5345
(dp5346
I-1
(dp5347
S'1.0'
p5348
(dp5349
I0
(dp5350
S'1.0'
p5351
(dp5352
I1
S'1.0'
p5353
sssssssssssI-2
S'0.0'
p5354
sssssI-1
(dp5355
S'0.26'
p5356
(dp5357
I0
(dp5358
S'0.33'
p5359
(dp5360
I0
S'0.0'
p5361
sI1
(dp5362
S'0.67'
p5363
(dp5364
I-1
(dp5365
S'0.67'
p5366
(dp5367
I-1
(dp5368
S'0.67'
p5369
(dp5370
I0
(dp5371
S'1.0'
p5372
(dp5373
I-1
(dp5374
S'1.0'
p5375
(dp5376
I-1
(dp5377
S'1.0'
p5378
(dp5379
I1
(dp5380
S'1.0'
p5381
(dp5382
I0
(dp5383
S'1.0'
p5384
(dp5385
I-2
(dp5386
S'1.0'
p5387
(dp5388
I-1
(dp5389
S'1.0'
p5390
(dp5391
I-1
(dp5392
S'1.0'
p5393
(dp5394
I-1
(dp5395
S'1.0'
p5396
(dp5397
I-1
(dp5398
S'1.0'
p5399
(dp5400
I-1
(dp5401
S'1.0'
p5402
(dp5403
I0
(dp5404
S'1.0'
p5405
(dp5406
I-2
(dp5407
S'1.0'
p5408
(dp5409
I0
(dp5410
S'1.0'
p5411
(dp5412
I0
(dp5413
S'1.0'
p5414
(dp5415
I-1
(dp5416
S'1.0'
p5417
(dp5418
I1
(dp5419
S'1.0'
p5420
(dp5421
I1
(dp5422
S'1.0'
p5423
(dp5424
I-1
(dp5425
S'1.0'
p5426
(dp5427
I-1
(dp5428
S'1.0'
p5429
(dp5430
I-1
(dp5431
S'1.0'
p5432
(dp5433
I-1
(dp5434
S'1.0'
p5435
(dp5436
I-1
(dp5437
S'1.0'
p5438
(dp5439
I-1
(dp5440
S'1.0'
p5441
(dp5442
I0
(dp5443
S'1.0'
p5444
(dp5445
I0
(dp5446
S'1.0'
p5447
(dp5448
I2
(dp5449
S'1.0'
p5450
(dp5451
I-1
(dp5452
S'1.0'
p5453
(dp5454
I-1
(dp5455
S'1.0'
p5456
(dp5457
I0
(dp5458
S'1.0'
p5459
(dp5460
I-2
(dp5461
S'1.0'
p5462
(dp5463
I0
(dp5464
S'1.0'
p5465
(dp5466
I-1
(dp5467
S'1.0'
p5468
(dp5469
I0
(dp5470
S'1.0'
p5471
(dp5472
I1
S'1.0'
p5473
sssssssssssssssssssssssssssssssssssssssssssssssssssssssssssssssssssssI-1
(dp5474
S'0.5'
p5475
(dp5476
I0
(dp5477
S'0.5'
p5478
(dp5479
I1
(dp5480
S'0.0'
p5481
(dp5482
I-1
(dp5483
S'0.0'
p5484
(dp5485
I-1
(dp5486
S'0.0'
p5487
(dp5488
I-1
(dp5489
S'0.0'
p5490
(dp5491
I-1
S'0.0'
p5492
sssssssssI-1
(dp5493
S'1.0'
p5494
(dp5495
I-2
(dp5496
S'1.0'
p5497
(dp5498
I0
(dp5499
S'1.0'
p5500
(dp5501
I-1
(dp5502
S'1.0'
p5503
(dp5504
I-2
(dp5505
S'1.0'
p5506
(dp5507
I-1
(dp5508
S'1.0'
p5509
(dp5510
I0
(dp5511
S'1.0'
p5512
(dp5513
I1
S'1.0'
p5514
sssssssssssssssssssssssssI-1
(dp5515
S'0.5'
p5516
(dp5517
I0
(dp5518
S'1.0'
p5519
(dp5520
I-2
(dp5521
S'1.0'
p5522
(dp5523
I-2
(dp5524
S'1.0'
p5525
(dp5526
I-1
(dp5527
S'1.0'
p5528
(dp5529
I0
(dp5530
S'1.0'
p5531
(dp5532
I1
S'1.0'
p5533
sssssssssssI-1
(dp5534
S'0.0'
p5535
(dp5536
I1
(dp5537
S'0.0'
p5538
(dp5539
I0
(dp5540
S'0.0'
p5541
(dp5542
I0
(dp5543
S'0.0'
p5544
(dp5545
I-2
(dp5546
S'0.0'
p5547
(dp5548
I-1
(dp5549
S'0.0'
p5550
(dp5551
I-1
(dp5552
S'0.0'
p5553
(dp5554
I1
(dp5555
S'0.0'
p5556
(dp5557
I-1
(dp5558
S'0.0'
p5559
(dp5560
I0
(dp5561
S'0.0'
p5562
(dp5563
I-2
S'0.0'
p5564
sssssssssssssssssssssssssI-1
(dp5565
S'0.2'
p5566
(dp5567
I0
(dp5568
S'0.0'
p5569
(dp5570
I0
S'0.0'
p5571
sI1
(dp5572
S'0.0'
p5573
(dp5574
I-1
(dp5575
S'0.0'
p5576
(dp5577
I-1
(dp5578
S'0.0'
p5579
(dp5580
I0
(dp5581
S'0.0'
p5582
(dp5583
I-1
S'0.0'
p5584
sssssssssssI-1
(dp5585
S'0.25'
p5586
(dp5587
I0
(dp5588
S'0.0'
p5589
(dp5590
I0
S'0.0'
p5591
sI-2
(dp5592
S'0.0'
p5593
(dp5594
I0
S'0.0'
p5595
sI-1
(dp5596
S'0.0'
p5597
(dp5598
I-1
(dp5599
S'0.0'
p5600
(dp5601
I0
(dp5602
S'0.0'
p5603
(dp5604
I-1
(dp5605
S'0.0'
p5606
(dp5607
I-2
S'0.0'
p5608
sssssssssssssI-1
(dp5609
S'0.4'
p5610
(dp5611
I0
(dp5612
S'0.33'
p5613
(dp5614
I1
(dp5615
S'0.33'
p5616
(dp5617
I0
(dp5618
S'0.5'
p5619
(dp5620
I1
(dp5621
S'1.0'
p5622
(dp5623
I-1
(dp5624
S'1.0'
p5625
(dp5626
I0
(dp5627
S'1.0'
p5628
(dp5629
I1
(dp5630
S'1.0'
p5631
(dp5632
I0
(dp5633
S'1.0'
p5634
(dp5635
I-1
(dp5636
S'1.0'
p5637
(dp5638
I0
(dp5639
S'1.0'
p5640
(dp5641
I0
(dp5642
S'1.0'
p5643
(dp5644
I2
S'1.0'
p5645
sssssssssssssssssI-1
(dp5646
S'0.0'
p5647
(dp5648
I1
(dp5649
S'0.0'
p5650
(dp5651
I-1
(dp5652
S'0.0'
p5653
(dp5654
I-1
(dp5655
S'0.0'
p5656
(dp5657
I-1
(dp5658
S'0.0'
p5659
(dp5660
I0
(dp5661
S'0.0'
p5662
(dp5663
I-1
(dp5664
S'0.0'
p5665
(dp5666
I-1
(dp5667
S'0.0'
p5668
(dp5669
I-1
(dp5670
S'0.0'
p5671
(dp5672
I1
(dp5673
S'0.0'
p5674
(dp5675
I0
(dp5676
S'0.0'
p5677
(dp5678
I-1
(dp5679
S'0.0'
p5680
(dp5681
I1
(dp5682
S'0.0'
p5683
(dp5684
I-1
(dp5685
S'0.0'
p5686
(dp5687
I-1
(dp5688
S'0.0'
p5689
(dp5690
I-1
(dp5691
S'0.0'
p5692
(dp5693
I-1
S'0.0'
p5694
sssssssssssssssssssssssssssssssssssI-1
(dp5695
S'0.0'
p5696
(dp5697
I-1
(dp5698
S'0.0'
p5699
(dp5700
I-1
S'0.0'
p5701
sssssssssI-1
(dp5702
S'0.5'
p5703
(dp5704
I-1
(dp5705
S'0.5'
p5706
(dp5707
I-1
(dp5708
S'0.5'
p5709
(dp5710
I0
(dp5711
S'0.0'
p5712
(dp5713
I1
S'0.0'
p5714
sssI-1
(dp5715
S'1.0'
p5716
(dp5717
I0
(dp5718
S'1.0'
p5719
(dp5720
I-1
(dp5721
S'1.0'
p5722
(dp5723
I-1
(dp5724
S'1.0'
p5725
(dp5726
I1
S'1.0'
p5727
sssssssssssssssssssssssssI-1
(dp5728
S'0.23'
p5729
(dp5730
I0
S'0.13'
p5731
sI1
(dp5732
S'0.29'
p5733
(dp5734
I0
(dp5735
S'0.0'
p5736
(dp5737
I-1
S'0.0'
p5738
sssI-1
(dp5739
S'0.33'
p5740
(dp5741
I0
(dp5742
S'0.33'
p5743
(dp5744
I0
S'0.0'
p5745
sI1
(dp5746
S'1.0'
p5747
(dp5748
I-1
(dp5749
S'1.0'
p5750
(dp5751
I0
(dp5752
S'1.0'
p5753
(dp5754
I-2
(dp5755
S'1.0'
p5756
(dp5757
I-1
(dp5758
S'1.0'
p5759
(dp5760
I0
(dp5761
S'1.0'
p5762
(dp5763
I-1
(dp5764
S'1.0'
p5765
(dp5766
I0
(dp5767
S'1.0'
p5768
(dp5769
I-2
(dp5770
S'1.0'
p5771
(dp5772
I0
(dp5773
S'1.0'
p5774
(dp5775
I2
S'1.0'
p5776
sssssssssssssssssssssI-2
(dp5777
S'0.0'
p5778
(dp5779
I-1
S'0.0'
p5780
sssssI-1
(dp5781
S'0.33'
p5782
(dp5783
I0
(dp5784
S'0.0'
p5785
(dp5786
I-2
(dp5787
S'0.0'
p5788
(dp5789
I-1
S'0.0'
p5790
sssssI-1
(dp5791
S'0.5'
p5792
(dp5793
I0
S'0.0'
p5794
sI-1
(dp5795
S'1.0'
p5796
(dp5797
I-1
(dp5798
S'1.0'
p5799
(dp5800
I0
(dp5801
S'1.0'
p5802
(dp5803
I0
(dp5804
S'1.0'
p5805
(dp5806
I1
(dp5807
S'1.0'
p5808
(dp5809
I0
(dp5810
S'1.0'
p5811
(dp5812
I2
S'1.0'
p5813
sssssssssssssssssssssI-1
(dp5814
S'0.36'
p5815
(dp5816
I0
S'0.0'
p5817
sI1
(dp5818
S'0.8'
p5819
(dp5820
I0
(dp5821
S'0.8'
p5822
(dp5823
I0
(dp5824
S'0.67'
p5825
(dp5826
I0
(dp5827
S'1.0'
p5828
(dp5829
I-1
(dp5830
S'1.0'
p5831
(dp5832
I2
(dp5833
S'1.0'
p5834
(dp5835
I1
(dp5836
S'1.0'
p5837
(dp5838
I0
(dp5839
S'1.0'
p5840
(dp5841
I-1
(dp5842
S'1.0'
p5843
(dp5844
I-2
(dp5845
S'1.0'
p5846
(dp5847
I-1
(dp5848
S'1.0'
p5849
(dp5850
I0
(dp5851
S'1.0'
p5852
(dp5853
I1
S'1.0'
p5854
sssssssssssssssssssI2
S'1.0'
p5855
sI-2
(dp5856
S'0.0'
p5857
(dp5858
I-1
(dp5859
S'0.0'
p5860
(dp5861
I-2
S'0.0'
p5862
sssssssI1
S'1.0'
p5863
sssssI-1
(dp5864
S'0.25'
p5865
(dp5866
I0
S'0.0'
p5867
sI1
(dp5868
S'0.0'
p5869
(dp5870
I0
(dp5871
S'0.0'
p5872
(dp5873
I0
(dp5874
S'0.0'
p5875
(dp5876
I0
(dp5877
S'0.0'
p5878
(dp5879
I-1
(dp5880
S'0.0'
p5881
(dp5882
I0
(dp5883
S'0.0'
p5884
(dp5885
I-1
S'0.0'
p5886
sssssssssssI-1
(dp5887
S'0.0'
p5888
(dp5889
I0
(dp5890
S'0.0'
p5891
(dp5892
I-2
S'0.0'
p5893
sssssssI-2
(dp5894
S'1.0'
p5895
(dp5896
I-1
(dp5897
S'1.0'
p5898
(dp5899
I0
(dp5900
S'1.0'
p5901
(dp5902
I0
(dp5903
S'1.0'
p5904
(dp5905
I2
S'1.0'
p5906
sssssssssssI-2
(dp5907
S'0.0'
p5908
(dp5909
I-1
(dp5910
S'0.0'
p5911
(dp5912
I-1
(dp5913
S'0.0'
p5914
(dp5915
I0
(dp5916
S'0.0'
p5917
(dp5918
I-2
(dp5919
S'0.0'
p5920
(dp5921
I-1
(dp5922
S'0.0'
p5923
(dp5924
I-1
(dp5925
S'0.0'
p5926
(dp5927
I0
(dp5928
S'0.0'
p5929
(dp5930
I-2
(dp5931
S'0.0'
p5932
(dp5933
I-1
S'0.0'
p5934
sssssssssssssssssssssI-2
(dp5935
S'0.0'
p5936
(dp5937
I0
(dp5938
S'0.0'
p5939
(dp5940
I1
S'0.0'
p5941
sssI-1
S'0.0'
p5942
sssssssI-1
(dp5943
S'0.13'
p5944
(dp5945
I0
(dp5946
S'0.14'
p5947
(dp5948
I0
S'0.06'
p5949
sI1
(dp5950
S'0.44'
p5951
(dp5952
I0
(dp5953
S'0.43'
p5954
(dp5955
I0
(dp5956
S'0.67'
p5957
(dp5958
I0
(dp5959
S'0.5'
p5960
(dp5961
I0
S'0.0'
p5962
sI2
(dp5963
S'1.0'
p5964
(dp5965
I0
(dp5966
S'1.0'
p5967
(dp5968
I0
(dp5969
S'1.0'
p5970
(dp5971
I1
(dp5972
S'1.0'
p5973
(dp5974
I1
(dp5975
S'1.0'
p5976
(dp5977
I0
(dp5978
S'1.0'
p5979
(dp5980
I1
S'1.0'
p5981
sssssssssssssssI1
(dp5982
S'1.0'
p5983
(dp5984
I0
(dp5985
S'1.0'
p5986
(dp5987
I2
S'1.0'
p5988
sssssssI1
(dp5989
S'0.0'
p5990
(dp5991
I-1
(dp5992
S'0.0'
p5993
(dp5994
I-1
(dp5995
S'0.0'
p5996
(dp5997
I-1
(dp5998
S'0.0'
p5999
(dp6000
I0
(dp6001
S'0.0'
p6002
(dp6003
I-2
(dp6004
S'0.0'
p6005
(dp6006
I0
(dp6007
S'0.0'
p6008
(dp6009
I0
(dp6010
S'0.0'
p6011
(dp6012
I-1
(dp6013
S'0.0'
p6014
(dp6015
I1
(dp6016
S'0.0'
p6017
(dp6018
I-1
(dp6019
S'0.0'
p6020
(dp6021
I0
(dp6022
S'0.0'
p6023
(dp6024
I-2
(dp6025
S'0.0'
p6026
(dp6027
I-1
S'0.0'
p6028
sssssssssssssssssssssssssssI-1
(dp6029
S'0.4'
p6030
(dp6031
I0
S'0.0'
p6032
sI-2
(dp6033
S'0.67'
p6034
(dp6035
I0
(dp6036
S'0.67'
p6037
(dp6038
I0
(dp6039
S'0.67'
p6040
(dp6041
I0
S'0.0'
p6042
sI1
(dp6043
S'1.0'
p6044
(dp6045
I1
(dp6046
S'1.0'
p6047
(dp6048
I0
(dp6049
S'1.0'
p6050
(dp6051
I0
(dp6052
S'1.0'
p6053
(dp6054
I0
(dp6055
S'1.0'
p6056
(dp6057
I2
S'1.0'
p6058
sssssssssssI-1
(dp6059
S'1.0'
p6060
(dp6061
I0
(dp6062
S'1.0'
p6063
(dp6064
I2
(dp6065
S'1.0'
p6066
(dp6067
I-1
(dp6068
S'1.0'
p6069
(dp6070
I1
S'1.0'
p6071
sssssssssssssssI-1
(dp6072
S'0.0'
p6073
(dp6074
I-2
(dp6075
S'0.0'
p6076
(dp6077
I-1
(dp6078
S'0.0'
p6079
(dp6080
I-1
S'0.0'
p6081
sssssssssI-2
(dp6082
S'0.4'
p6083
(dp6084
I0
(dp6085
S'1.0'
p6086
(dp6087
I0
(dp6088
S'1.0'
p6089
(dp6090
I1
(dp6091
S'1.0'
p6092
(dp6093
I-2
(dp6094
S'1.0'
p6095
(dp6096
I-1
(dp6097
S'1.0'
p6098
(dp6099
I-1
(dp6100
S'1.0'
p6101
(dp6102
I0
(dp6103
S'1.0'
p6104
(dp6105
I0
(dp6106
S'1.0'
p6107
(dp6108
I-2
(dp6109
S'1.0'
p6110
(dp6111
I-2
(dp6112
S'1.0'
p6113
(dp6114
I0
(dp6115
S'1.0'
p6116
(dp6117
I0
(dp6118
S'1.0'
p6119
(dp6120
I2
(dp6121
S'1.0'
p6122
(dp6123
I0
(dp6124
S'1.0'
p6125
(dp6126
I-2
(dp6127
S'1.0'
p6128
(dp6129
I0
(dp6130
S'1.0'
p6131
(dp6132
I1
(dp6133
S'1.0'
p6134
(dp6135
I0
(dp6136
S'1.0'
p6137
(dp6138
I0
(dp6139
S'1.0'
p6140
(dp6141
I2
S'1.0'
p6142
sssssssssssssssssssssssssssssssssssssssI-1
(dp6143
S'0.25'
p6144
(dp6145
I0
(dp6146
S'0.0'
p6147
(dp6148
I0
S'0.0'
p6149
sI1
(dp6150
S'0.0'
p6151
(dp6152
I0
(dp6153
S'0.0'
p6154
(dp6155
I-1
S'0.0'
p6156
sssssI-2
(dp6157
S'0.0'
p6158
(dp6159
I-1
S'0.0'
p6160
sssssI-1
(dp6161
S'1.0'
p6162
(dp6163
I0
(dp6164
S'1.0'
p6165
(dp6166
I1
S'1.0'
p6167
sssssssssssI-1
(dp6168
S'0.5'
p6169
(dp6170
I-1
(dp6171
S'0.5'
p6172
(dp6173
I0
(dp6174
S'0.5'
p6175
(dp6176
I-2
(dp6177
S'0.5'
p6178
(dp6179
I0
(dp6180
S'1.0'
p6181
(dp6182
I1
(dp6183
S'1.0'
p6184
(dp6185
I0
(dp6186
S'1.0'
p6187
(dp6188
I-2
(dp6189
S'1.0'
p6190
(dp6191
I-1
(dp6192
S'1.0'
p6193
(dp6194
I-1
(dp6195
S'1.0'
p6196
(dp6197
I-1
(dp6198
S'1.0'
p6199
(dp6200
I0
(dp6201
S'1.0'
p6202
(dp6203
I-2
(dp6204
S'1.0'
p6205
(dp6206
I-1
(dp6207
S'1.0'
p6208
(dp6209
I-1
(dp6210
S'1.0'
p6211
(dp6212
I0
(dp6213
S'1.0'
p6214
(dp6215
I1
S'1.0'
p6216
sssssssssssssssssssssssssI-1
(dp6217
S'0.0'
p6218
(dp6219
I-1
S'0.0'
p6220
sssssssssssssI-2
(dp6221
S'0.06'
p6222
(dp6223
I0
(dp6224
S'0.07'
p6225
(dp6226
I0
S'0.14'
p6227
sI1
(dp6228
S'0.0'
p6229
(dp6230
I0
(dp6231
S'0.0'
p6232
(dp6233
I0
S'0.0'
p6234
sI-2
(dp6235
S'0.0'
p6236
(dp6237
I-1
(dp6238
S'0.0'
p6239
(dp6240
I-1
(dp6241
S'0.0'
p6242
(dp6243
I-1
(dp6244
S'0.0'
p6245
(dp6246
I-1
(dp6247
S'0.0'
p6248
(dp6249
I-1
(dp6250
S'0.0'
p6251
(dp6252
I-1
(dp6253
S'0.0'
p6254
(dp6255
I-1
S'0.0'
p6256
sssssssssssssssssssI-1
(dp6257
S'0.0'
p6258
(dp6259
I0
S'0.0'
p6260
sI1
(dp6261
S'0.0'
p6262
(dp6263
I0
(dp6264
S'0.0'
p6265
(dp6266
I1
(dp6267
S'0.0'
p6268
(dp6269
I0
(dp6270
S'0.0'
p6271
(dp6272
I-1
(dp6273
S'0.0'
p6274
(dp6275
I-2
(dp6276
S'0.0'
p6277
(dp6278
I0
(dp6279
S'0.0'
p6280
(dp6281
I-2
S'0.0'
p6282
sssssssssssssssssI-2
S'0.0'
p6283
sssI-1
(dp6284
S'0.0'
p6285
(dp6286
I0
(dp6287
S'0.0'
p6288
(dp6289
I0
S'0.0'
p6290
sI-2
(dp6291
S'0.0'
p6292
(dp6293
I-1
(dp6294
S'0.0'
p6295
(dp6296
I-1
S'0.0'
p6297
sssssI-1
(dp6298
S'0.0'
p6299
(dp6300
I-1
(dp6301
S'0.0'
p6302
(dp6303
I1
S'0.0'
p6304
sssssssI-1
S'0.0'
p6305
sssssI-1
(dp6306
S'0.29'
p6307
(dp6308
I0
(dp6309
S'0.29'
p6310
(dp6311
I0
S'0.0'
p6312
sI1
(dp6313
S'1.0'
p6314
(dp6315
I1
(dp6316
S'1.0'
p6317
(dp6318
I0
(dp6319
S'1.0'
p6320
(dp6321
I1
S'1.0'
p6322
sssssssI-1
(dp6323
S'0.33'
p6324
(dp6325
I0
(dp6326
S'1.0'
p6327
(dp6328
I1
(dp6329
S'1.0'
p6330
(dp6331
I-2
(dp6332
S'1.0'
p6333
(dp6334
I0
(dp6335
S'1.0'
p6336
(dp6337
I-2
(dp6338
S'1.0'
p6339
(dp6340
I0
(dp6341
S'1.0'
p6342
(dp6343
I1
S'1.0'
p6344
sssssssssssssI1
(dp6345
S'0.0'
p6346
(dp6347
I1
(dp6348
S'0.0'
p6349
(dp6350
I-1
(dp6351
S'0.0'
p6352
(dp6353
I-1
(dp6354
S'0.0'
p6355
(dp6356
I0
(dp6357
S'0.0'
p6358
(dp6359
I-2
(dp6360
S'0.0'
p6361
(dp6362
I0
(dp6363
S'0.0'
p6364
(dp6365
I-2
(dp6366
S'0.0'
p6367
(dp6368
I-1
(dp6369
S'0.0'
p6370
(dp6371
I-1
S'0.0'
p6372
sssssssssssssssssssI2
(dp6373
S'0.0'
p6374
(dp6375
I0
(dp6376
S'0.0'
p6377
(dp6378
I-1
(dp6379
S'0.0'
p6380
(dp6381
I-1
(dp6382
S'0.0'
p6383
(dp6384
I-2
(dp6385
S'0.0'
p6386
(dp6387
I-1
(dp6388
S'0.0'
p6389
(dp6390
I-1
(dp6391
S'0.0'
p6392
(dp6393
I0
(dp6394
S'0.0'
p6395
(dp6396
I1
(dp6397
S'0.0'
p6398
(dp6399
I0
(dp6400
S'0.0'
p6401
(dp6402
I1
(dp6403
S'0.0'
p6404
(dp6405
I-1
(dp6406
S'0.0'
p6407
(dp6408
I-1
(dp6409
S'0.0'
p6410
(dp6411
I0
(dp6412
S'0.0'
p6413
(dp6414
I1
(dp6415
S'0.0'
p6416
(dp6417
I0
(dp6418
S'0.0'
p6419
(dp6420
I-1
(dp6421
S'0.0'
p6422
(dp6423
I-1
(dp6424
S'0.0'
p6425
(dp6426
I-2
(dp6427
S'0.0'
p6428
(dp6429
I0
(dp6430
S'0.0'
p6431
(dp6432
I-2
(dp6433
S'0.0'
p6434
(dp6435
I0
(dp6436
S'0.0'
p6437
(dp6438
I1
S'0.0'
p6439
sssssssssssssssssssssssssssssssssssssssssssssssI-2
S'0.0'
p6440
sssI1
(dp6441
S'0.33'
p6442
(dp6443
I0
(dp6444
S'0.3'
p6445
(dp6446
I0
S'0.38'
p6447
sI-2
(dp6448
S'0.0'
p6449
(dp6450
I0
(dp6451
S'0.0'
p6452
(dp6453
I-2
(dp6454
S'0.0'
p6455
(dp6456
I0
(dp6457
S'0.0'
p6458
(dp6459
I-2
(dp6460
S'0.0'
p6461
(dp6462
I0
(dp6463
S'0.0'
p6464
(dp6465
I0
(dp6466
S'0.0'
p6467
(dp6468
I0
(dp6469
S'0.0'
p6470
(dp6471
I2
(dp6472
S'0.0'
p6473
(dp6474
I-2
(dp6475
S'0.0'
p6476
(dp6477
I-1
(dp6478
S'0.0'
p6479
(dp6480
I-1
S'0.0'
p6481
sssssssssssssssssssssssI-1
(dp6482
S'0.0'
p6483
(dp6484
I1
S'0.0'
p6485
sssssI-1
(dp6486
S'0.5'
p6487
(dp6488
I0
(dp6489
S'1.0'
p6490
(dp6491
I1
(dp6492
S'1.0'
p6493
(dp6494
I-1
(dp6495
S'1.0'
p6496
(dp6497
I0
(dp6498
S'1.0'
p6499
(dp6500
I1
S'1.0'
p6501
sssssssssI-1
(dp6502
S'0.0'
p6503
(dp6504
I0
(dp6505
S'0.0'
p6506
(dp6507
I-2
(dp6508
S'0.0'
p6509
(dp6510
I-1
(dp6511
S'0.0'
p6512
(dp6513
I-1
(dp6514
S'0.0'
p6515
(dp6516
I0
(dp6517
S'0.0'
p6518
(dp6519
I-2
(dp6520
S'0.0'
p6521
(dp6522
I-1
(dp6523
S'0.0'
p6524
(dp6525
I-1
(dp6526
S'0.0'
p6527
(dp6528
I-1
S'0.0'
p6529
sssssssssssssssssssssssI-1
(dp6530
S'0.31'
p6531
(dp6532
I0
(dp6533
S'0.2'
p6534
(dp6535
I0
S'0.0'
p6536
sI-1
(dp6537
S'1.0'
p6538
(dp6539
I2
S'1.0'
p6540
sssI-2
(dp6541
S'0.0'
p6542
(dp6543
I-1
(dp6544
S'0.0'
p6545
(dp6546
I-1
S'0.0'
p6547
sssssssI1
(dp6548
S'0.0'
p6549
(dp6550
I0
(dp6551
S'0.0'
p6552
(dp6553
I1
(dp6554
S'0.0'
p6555
(dp6556
I-1
(dp6557
S'0.0'
p6558
(dp6559
I-1
(dp6560
S'0.0'
p6561
(dp6562
I-1
(dp6563
S'0.0'
p6564
(dp6565
I-1
(dp6566
S'0.0'
p6567
(dp6568
I0
(dp6569
S'0.0'
p6570
(dp6571
I-2
(dp6572
S'0.0'
p6573
(dp6574
I0
(dp6575
S'0.0'
p6576
(dp6577
I-2
S'0.0'
p6578
sssssssssssssssssssssI-1
(dp6579
S'0.75'
p6580
(dp6581
I0
S'0.5'
p6582
sI-2
(dp6583
S'1.0'
p6584
(dp6585
I0
(dp6586
S'1.0'
p6587
(dp6588
I0
(dp6589
S'1.0'
p6590
(dp6591
I2
S'1.0'
p6592
sssI1
S'1.0'
p6593
sssssssI-2
(dp6594
S'0.0'
p6595
(dp6596
I0
(dp6597
S'0.0'
p6598
(dp6599
I1
(dp6600
S'0.0'
p6601
(dp6602
I-1
S'0.0'
p6603
sssI-1
S'0.0'
p6604
sssI-1
S'0.0'
p6605
sssssI-2
(dp6606
S'0.0'
p6607
(dp6608
I0
(dp6609
S'0.0'
p6610
(dp6611
I0
(dp6612
S'0.0'
p6613
(dp6614
I-1
S'0.0'
p6615
sssssI-1
(dp6616
S'0.0'
p6617
(dp6618
I0
(dp6619
S'0.0'
p6620
(dp6621
I0
S'0.0'
p6622
sI-2
(dp6623
S'0.0'
p6624
(dp6625
I0
(dp6626
S'0.0'
p6627
(dp6628
I-2
S'0.0'
p6629
sssssssssssssssI-1
(dp6630
S'0.1'
p6631
(dp6632
I0
(dp6633
S'0.05'
p6634
(dp6635
I0
S'0.02'
p6636
sI1
(dp6637
S'0.2'
p6638
(dp6639
I0
(dp6640
S'0.33'
p6641
(dp6642
I1
(dp6643
S'0.0'
p6644
(dp6645
I0
(dp6646
S'0.0'
p6647
(dp6648
I0
S'0.0'
p6649
sI-2
(dp6650
S'0.0'
p6651
(dp6652
I0
(dp6653
S'0.0'
p6654
(dp6655
I0
(dp6656
S'0.0'
p6657
(dp6658
I-2
(dp6659
S'0.0'
p6660
(dp6661
I1
S'0.0'
p6662
sssssssssssssI-2
(dp6663
S'1.0'
p6664
(dp6665
I0
(dp6666
S'1.0'
p6667
(dp6668
I1
(dp6669
S'1.0'
p6670
(dp6671
I0
(dp6672
S'1.0'
p6673
(dp6674
I0
(dp6675
S'1.0'
p6676
(dp6677
I2
S'1.0'
p6678
sssssssssssssI-1
(dp6679
S'0.0'
p6680
(dp6681
I0
(dp6682
S'0.0'
p6683
(dp6684
I1
(dp6685
S'0.0'
p6686
(dp6687
I0
(dp6688
S'0.0'
p6689
(dp6690
I-2
(dp6691
S'0.0'
p6692
(dp6693
I0
(dp6694
S'0.0'
p6695
(dp6696
I0
(dp6697
S'0.0'
p6698
(dp6699
I-2
(dp6700
S'0.0'
p6701
(dp6702
I1
(dp6703
S'0.0'
p6704
(dp6705
I-1
(dp6706
S'0.0'
p6707
(dp6708
I-1
S'0.0'
p6709
sssssssssssssssssssI-1
(dp6710
S'0.0'
p6711
(dp6712
I-1
S'0.0'
p6713
sssssssI-1
(dp6714
S'0.0'
p6715
(dp6716
I0
S'0.0'
p6717
sI1
(dp6718
S'0.0'
p6719
(dp6720
I-1
(dp6721
S'0.0'
p6722
(dp6723
I0
(dp6724
S'0.0'
p6725
(dp6726
I-2
(dp6727
S'0.0'
p6728
(dp6729
I0
(dp6730
S'0.0'
p6731
(dp6732
I1
(dp6733
S'0.0'
p6734
(dp6735
I0
(dp6736
S'0.0'
p6737
(dp6738
I1
(dp6739
S'0.0'
p6740
(dp6741
I0
(dp6742
S'0.0'
p6743
(dp6744
I-1
S'0.0'
p6745
sssssssssssssssssssssI-2
(dp6746
S'0.13'
p6747
(dp6748
I0
(dp6749
S'0.17'
p6750
(dp6751
I0
S'0.0'
p6752
sI-2
(dp6753
S'0.5'
p6754
(dp6755
I0
(dp6756
S'1.0'
p6757
(dp6758
I-2
(dp6759
S'1.0'
p6760
(dp6761
I-1
(dp6762
S'1.0'
p6763
(dp6764
I0
(dp6765
S'1.0'
p6766
(dp6767
I0
(dp6768
S'1.0'
p6769
(dp6770
I2
S'1.0'
p6771
sssssssssssI-1
S'0.0'
p6772
sssssI-1
(dp6773
S'0.0'
p6774
(dp6775
I0
(dp6776
S'0.0'
p6777
(dp6778
I-2
S'0.0'
p6779
sssI-1
(dp6780
S'0.0'
p6781
(dp6782
I0
(dp6783
S'0.0'
p6784
(dp6785
I1
S'0.0'
p6786
sssssssssssI-1
(dp6787
S'0.15'
p6788
(dp6789
I0
(dp6790
S'0.13'
p6791
(dp6792
I0
S'0.0'
p6793
sI1
(dp6794
S'0.38'
p6795
(dp6796
I0
(dp6797
S'0.6'
p6798
(dp6799
I0
S'0.5'
p6800
sI1
(dp6801
S'0.5'
p6802
(dp6803
I0
(dp6804
S'0.5'
p6805
(dp6806
I0
S'0.0'
p6807
sI-1
(dp6808
S'1.0'
p6809
(dp6810
I-2
(dp6811
S'1.0'
p6812
(dp6813
I0
(dp6814
S'1.0'
p6815
(dp6816
I1
S'1.0'
p6817
sssssssssssI-1
(dp6818
S'1.0'
p6819
(dp6820
I1
(dp6821
S'1.0'
p6822
(dp6823
I-1
(dp6824
S'1.0'
p6825
(dp6826
I-1
(dp6827
S'1.0'
p6828
(dp6829
I-1
(dp6830
S'1.0'
p6831
(dp6832
I0
(dp6833
S'1.0'
p6834
(dp6835
I0
(dp6836
S'1.0'
p6837
(dp6838
I-1
(dp6839
S'1.0'
p6840
(dp6841
I0
(dp6842
S'1.0'
p6843
(dp6844
I1
S'1.0'
p6845
sssssssssssssssssssssI-1
(dp6846
S'0.25'
p6847
(dp6848
I0
(dp6849
S'0.33'
p6850
(dp6851
I1
(dp6852
S'1.0'
p6853
(dp6854
I0
(dp6855
S'1.0'
p6856
(dp6857
I-2
(dp6858
S'1.0'
p6859
(dp6860
I0
(dp6861
S'1.0'
p6862
(dp6863
I-2
(dp6864
S'1.0'
p6865
(dp6866
I-1
(dp6867
S'1.0'
p6868
(dp6869
I0
(dp6870
S'1.0'
p6871
(dp6872
I-1
(dp6873
S'1.0'
p6874
(dp6875
I1
S'1.0'
p6876
sssssssssssssssssI-1
(dp6877
S'0.25'
p6878
(dp6879
I0
(dp6880
S'0.33'
p6881
(dp6882
I0
(dp6883
S'0.0'
p6884
(dp6885
I0
S'0.0'
p6886
sI-2
(dp6887
S'0.0'
p6888
(dp6889
I2
(dp6890
S'0.0'
p6891
(dp6892
I-1
(dp6893
S'0.0'
p6894
(dp6895
I-1
(dp6896
S'0.0'
p6897
(dp6898
I-1
S'0.0'
p6899
sssssssssssI1
(dp6900
S'1.0'
p6901
(dp6902
I1
S'1.0'
p6903
sssssI1
(dp6904
S'0.0'
p6905
(dp6906
I-1
(dp6907
S'0.0'
p6908
(dp6909
I-1
S'0.0'
p6910
sssssssI-2
S'0.0'
p6911
sssI-1
S'0.0'
p6912
sssssI-2
S'0.0'
p6913
sI-1
(dp6914
S'0.0'
p6915
(dp6916
I1
(dp6917
S'0.0'
p6918
(dp6919
I-1
(dp6920
S'0.0'
p6921
(dp6922
I-1
S'0.0'
p6923
sssssI-2
(dp6924
S'0.0'
p6925
(dp6926
I-1
(dp6927
S'0.0'
p6928
(dp6929
I-1
S'0.0'
p6930
sssssssssI-1
(dp6931
S'0.17'
p6932
(dp6933
I0
(dp6934
S'0.2'
p6935
(dp6936
I0
S'0.09'
p6937
sI1
(dp6938
S'1.0'
p6939
(dp6940
I0
(dp6941
S'1.0'
p6942
(dp6943
I0
S'1.0'
p6944
sI1
(dp6945
S'1.0'
p6946
(dp6947
I0
(dp6948
S'1.0'
p6949
(dp6950
I1
S'1.0'
p6951
sssssssssI-2
(dp6952
S'0.0'
p6953
(dp6954
I0
(dp6955
S'0.0'
p6956
(dp6957
I0
S'0.0'
p6958
sI-1
(dp6959
S'0.0'
p6960
(dp6961
I0
(dp6962
S'0.0'
p6963
(dp6964
I-1
S'0.0'
p6965
sssssssI-1
(dp6966
S'0.0'
p6967
(dp6968
I0
(dp6969
S'0.0'
p6970
(dp6971
I0
(dp6972
S'0.0'
p6973
(dp6974
I1
(dp6975
S'0.0'
p6976
(dp6977
I1
(dp6978
S'0.0'
p6979
(dp6980
I0
(dp6981
S'0.0'
p6982
(dp6983
I-1
(dp6984
S'0.0'
p6985
(dp6986
I1
(dp6987
S'0.0'
p6988
(dp6989
I-1
S'0.0'
p6990
sssssssssssssssssssI-1
(dp6991
S'0.33'
p6992
(dp6993
I0
S'0.0'
p6994
sI1
S'0.5'
p6995
sssssI-1
(dp6996
S'0.15'
p6997
(dp6998
I0
(dp6999
S'0.0'
p7000
(dp7001
I0
S'0.0'
p7002
sI-2
(dp7003
S'0.0'
p7004
(dp7005
I0
S'0.0'
p7006
sI-1
(dp7007
S'0.0'
p7008
(dp7009
I0
(dp7010
S'0.0'
p7011
(dp7012
I1
(dp7013
S'0.0'
p7014
(dp7015
I0
(dp7016
S'0.0'
p7017
(dp7018
I-1
(dp7019
S'0.0'
p7020
(dp7021
I0
(dp7022
S'0.0'
p7023
(dp7024
I1
(dp7025
S'0.0'
p7026
(dp7027
I-2
S'0.0'
p7028
sssssssssssssssssssI-1
(dp7029
S'0.25'
p7030
(dp7031
I0
(dp7032
S'0.3'
p7033
(dp7034
I0
S'0.14'
p7035
sI1
(dp7036
S'0.67'
p7037
(dp7038
I0
(dp7039
S'0.5'
p7040
(dp7041
I1
(dp7042
S'1.0'
p7043
(dp7044
I0
(dp7045
S'1.0'
p7046
(dp7047
I-2
(dp7048
S'1.0'
p7049
(dp7050
I0
(dp7051
S'1.0'
p7052
(dp7053
I1
(dp7054
S'1.0'
p7055
(dp7056
I0
(dp7057
S'1.0'
p7058
(dp7059
I0
(dp7060
S'1.0'
p7061
(dp7062
I-1
(dp7063
S'1.0'
p7064
(dp7065
I-1
(dp7066
S'1.0'
p7067
(dp7068
I2
S'1.0'
p7069
sssssssssssssssssssI-2
S'0.0'
p7070
sssI-1
(dp7071
S'1.0'
p7072
(dp7073
I-1
(dp7074
S'1.0'
p7075
(dp7076
I0
(dp7077
S'1.0'
p7078
(dp7079
I-2
(dp7080
S'1.0'
p7081
(dp7082
I0
(dp7083
S'1.0'
p7084
(dp7085
I1
(dp7086
S'1.0'
p7087
(dp7088
I0
(dp7089
S'1.0'
p7090
(dp7091
I0
(dp7092
S'1.0'
p7093
(dp7094
I1
(dp7095
S'1.0'
p7096
(dp7097
I0
(dp7098
S'1.0'
p7099
(dp7100
I1
S'1.0'
p7101
sssssssssssssssssssssssssI-1
S'0.0'
p7102
ssssssssssssssss.